
;CodeVisionAVR C Compiler V3.12 Advanced
;(C) Copyright 1998-2014 Pavel Haiduc, HP InfoTech s.r.l.
;http://www.hpinfotech.com

;Build configuration    : Debug
;Chip type              : ATmega128A
;Program type           : Application
;Clock frequency        : 8,000000 MHz
;Memory model           : Small
;Optimize for           : Size
;(s)printf features     : int, width
;(s)scanf features      : int, width
;External RAM size      : 0
;Data Stack size        : 1024 byte(s)
;Heap size              : 0 byte(s)
;Promote 'char' to 'int': Yes
;'char' is unsigned     : Yes
;8 bit enums            : Yes
;Global 'const' stored in FLASH: No
;Enhanced function parameter passing: Yes
;Enhanced core instructions: On
;Automatic register allocation for global variables: On
;Smart register allocation: On

	#define _MODEL_SMALL_

	#pragma AVRPART ADMIN PART_NAME ATmega128A
	#pragma AVRPART MEMORY PROG_FLASH 131072
	#pragma AVRPART MEMORY EEPROM 4096
	#pragma AVRPART MEMORY INT_SRAM SIZE 4096
	#pragma AVRPART MEMORY INT_SRAM START_ADDR 0x100

	#define CALL_SUPPORTED 1

	.LISTMAC
	.EQU UDRE=0x5
	.EQU RXC=0x7
	.EQU USR=0xB
	.EQU UDR=0xC
	.EQU SPSR=0xE
	.EQU SPDR=0xF
	.EQU EERE=0x0
	.EQU EEWE=0x1
	.EQU EEMWE=0x2
	.EQU EECR=0x1C
	.EQU EEDR=0x1D
	.EQU EEARL=0x1E
	.EQU EEARH=0x1F
	.EQU WDTCR=0x21
	.EQU MCUCR=0x35
	.EQU RAMPZ=0x3B
	.EQU SPL=0x3D
	.EQU SPH=0x3E
	.EQU SREG=0x3F
	.EQU XMCRA=0x6D
	.EQU XMCRB=0x6C

	.DEF R0X0=R0
	.DEF R0X1=R1
	.DEF R0X2=R2
	.DEF R0X3=R3
	.DEF R0X4=R4
	.DEF R0X5=R5
	.DEF R0X6=R6
	.DEF R0X7=R7
	.DEF R0X8=R8
	.DEF R0X9=R9
	.DEF R0XA=R10
	.DEF R0XB=R11
	.DEF R0XC=R12
	.DEF R0XD=R13
	.DEF R0XE=R14
	.DEF R0XF=R15
	.DEF R0X10=R16
	.DEF R0X11=R17
	.DEF R0X12=R18
	.DEF R0X13=R19
	.DEF R0X14=R20
	.DEF R0X15=R21
	.DEF R0X16=R22
	.DEF R0X17=R23
	.DEF R0X18=R24
	.DEF R0X19=R25
	.DEF R0X1A=R26
	.DEF R0X1B=R27
	.DEF R0X1C=R28
	.DEF R0X1D=R29
	.DEF R0X1E=R30
	.DEF R0X1F=R31

	.EQU __SRAM_START=0x0100
	.EQU __SRAM_END=0x10FF
	.EQU __DSTACK_SIZE=0x0400
	.EQU __HEAP_SIZE=0x0000
	.EQU __CLEAR_SRAM_SIZE=__SRAM_END-__SRAM_START+1

	.MACRO __CPD1N
	CPI  R30,LOW(@0)
	LDI  R26,HIGH(@0)
	CPC  R31,R26
	LDI  R26,BYTE3(@0)
	CPC  R22,R26
	LDI  R26,BYTE4(@0)
	CPC  R23,R26
	.ENDM

	.MACRO __CPD2N
	CPI  R26,LOW(@0)
	LDI  R30,HIGH(@0)
	CPC  R27,R30
	LDI  R30,BYTE3(@0)
	CPC  R24,R30
	LDI  R30,BYTE4(@0)
	CPC  R25,R30
	.ENDM

	.MACRO __CPWRR
	CP   R@0,R@2
	CPC  R@1,R@3
	.ENDM

	.MACRO __CPWRN
	CPI  R@0,LOW(@2)
	LDI  R30,HIGH(@2)
	CPC  R@1,R30
	.ENDM

	.MACRO __ADDB1MN
	SUBI R30,LOW(-@0-(@1))
	.ENDM

	.MACRO __ADDB2MN
	SUBI R26,LOW(-@0-(@1))
	.ENDM

	.MACRO __ADDW1MN
	SUBI R30,LOW(-@0-(@1))
	SBCI R31,HIGH(-@0-(@1))
	.ENDM

	.MACRO __ADDW2MN
	SUBI R26,LOW(-@0-(@1))
	SBCI R27,HIGH(-@0-(@1))
	.ENDM

	.MACRO __ADDW1FN
	SUBI R30,LOW(-2*@0-(@1))
	SBCI R31,HIGH(-2*@0-(@1))
	.ENDM

	.MACRO __ADDD1FN
	SUBI R30,LOW(-2*@0-(@1))
	SBCI R31,HIGH(-2*@0-(@1))
	SBCI R22,BYTE3(-2*@0-(@1))
	.ENDM

	.MACRO __ADDD1N
	SUBI R30,LOW(-@0)
	SBCI R31,HIGH(-@0)
	SBCI R22,BYTE3(-@0)
	SBCI R23,BYTE4(-@0)
	.ENDM

	.MACRO __ADDD2N
	SUBI R26,LOW(-@0)
	SBCI R27,HIGH(-@0)
	SBCI R24,BYTE3(-@0)
	SBCI R25,BYTE4(-@0)
	.ENDM

	.MACRO __SUBD1N
	SUBI R30,LOW(@0)
	SBCI R31,HIGH(@0)
	SBCI R22,BYTE3(@0)
	SBCI R23,BYTE4(@0)
	.ENDM

	.MACRO __SUBD2N
	SUBI R26,LOW(@0)
	SBCI R27,HIGH(@0)
	SBCI R24,BYTE3(@0)
	SBCI R25,BYTE4(@0)
	.ENDM

	.MACRO __ANDBMNN
	LDS  R30,@0+(@1)
	ANDI R30,LOW(@2)
	STS  @0+(@1),R30
	.ENDM

	.MACRO __ANDWMNN
	LDS  R30,@0+(@1)
	ANDI R30,LOW(@2)
	STS  @0+(@1),R30
	LDS  R30,@0+(@1)+1
	ANDI R30,HIGH(@2)
	STS  @0+(@1)+1,R30
	.ENDM

	.MACRO __ANDD1N
	ANDI R30,LOW(@0)
	ANDI R31,HIGH(@0)
	ANDI R22,BYTE3(@0)
	ANDI R23,BYTE4(@0)
	.ENDM

	.MACRO __ANDD2N
	ANDI R26,LOW(@0)
	ANDI R27,HIGH(@0)
	ANDI R24,BYTE3(@0)
	ANDI R25,BYTE4(@0)
	.ENDM

	.MACRO __ORBMNN
	LDS  R30,@0+(@1)
	ORI  R30,LOW(@2)
	STS  @0+(@1),R30
	.ENDM

	.MACRO __ORWMNN
	LDS  R30,@0+(@1)
	ORI  R30,LOW(@2)
	STS  @0+(@1),R30
	LDS  R30,@0+(@1)+1
	ORI  R30,HIGH(@2)
	STS  @0+(@1)+1,R30
	.ENDM

	.MACRO __ORD1N
	ORI  R30,LOW(@0)
	ORI  R31,HIGH(@0)
	ORI  R22,BYTE3(@0)
	ORI  R23,BYTE4(@0)
	.ENDM

	.MACRO __ORD2N
	ORI  R26,LOW(@0)
	ORI  R27,HIGH(@0)
	ORI  R24,BYTE3(@0)
	ORI  R25,BYTE4(@0)
	.ENDM

	.MACRO __DELAY_USB
	LDI  R24,LOW(@0)
__DELAY_USB_LOOP:
	DEC  R24
	BRNE __DELAY_USB_LOOP
	.ENDM

	.MACRO __DELAY_USW
	LDI  R24,LOW(@0)
	LDI  R25,HIGH(@0)
__DELAY_USW_LOOP:
	SBIW R24,1
	BRNE __DELAY_USW_LOOP
	.ENDM

	.MACRO __GETD1S
	LDD  R30,Y+@0
	LDD  R31,Y+@0+1
	LDD  R22,Y+@0+2
	LDD  R23,Y+@0+3
	.ENDM

	.MACRO __GETD2S
	LDD  R26,Y+@0
	LDD  R27,Y+@0+1
	LDD  R24,Y+@0+2
	LDD  R25,Y+@0+3
	.ENDM

	.MACRO __PUTD1S
	STD  Y+@0,R30
	STD  Y+@0+1,R31
	STD  Y+@0+2,R22
	STD  Y+@0+3,R23
	.ENDM

	.MACRO __PUTD2S
	STD  Y+@0,R26
	STD  Y+@0+1,R27
	STD  Y+@0+2,R24
	STD  Y+@0+3,R25
	.ENDM

	.MACRO __PUTDZ2
	STD  Z+@0,R26
	STD  Z+@0+1,R27
	STD  Z+@0+2,R24
	STD  Z+@0+3,R25
	.ENDM

	.MACRO __CLRD1S
	STD  Y+@0,R30
	STD  Y+@0+1,R30
	STD  Y+@0+2,R30
	STD  Y+@0+3,R30
	.ENDM

	.MACRO __POINTB1MN
	LDI  R30,LOW(@0+(@1))
	.ENDM

	.MACRO __POINTW1MN
	LDI  R30,LOW(@0+(@1))
	LDI  R31,HIGH(@0+(@1))
	.ENDM

	.MACRO __POINTD1M
	LDI  R30,LOW(@0)
	LDI  R31,HIGH(@0)
	LDI  R22,BYTE3(@0)
	LDI  R23,BYTE4(@0)
	.ENDM

	.MACRO __POINTW1FN
	LDI  R30,LOW(2*@0+(@1))
	LDI  R31,HIGH(2*@0+(@1))
	.ENDM

	.MACRO __POINTD1FN
	LDI  R30,LOW(2*@0+(@1))
	LDI  R31,HIGH(2*@0+(@1))
	LDI  R22,BYTE3(2*@0+(@1))
	LDI  R23,BYTE4(2*@0+(@1))
	.ENDM

	.MACRO __POINTB2MN
	LDI  R26,LOW(@0+(@1))
	.ENDM

	.MACRO __POINTW2MN
	LDI  R26,LOW(@0+(@1))
	LDI  R27,HIGH(@0+(@1))
	.ENDM

	.MACRO __POINTW2FN
	LDI  R26,LOW(2*@0+(@1))
	LDI  R27,HIGH(2*@0+(@1))
	.ENDM

	.MACRO __POINTD2FN
	LDI  R26,LOW(2*@0+(@1))
	LDI  R27,HIGH(2*@0+(@1))
	LDI  R24,BYTE3(2*@0+(@1))
	LDI  R25,BYTE4(2*@0+(@1))
	.ENDM

	.MACRO __POINTBRM
	LDI  R@0,LOW(@1)
	.ENDM

	.MACRO __POINTWRM
	LDI  R@0,LOW(@2)
	LDI  R@1,HIGH(@2)
	.ENDM

	.MACRO __POINTBRMN
	LDI  R@0,LOW(@1+(@2))
	.ENDM

	.MACRO __POINTWRMN
	LDI  R@0,LOW(@2+(@3))
	LDI  R@1,HIGH(@2+(@3))
	.ENDM

	.MACRO __POINTWRFN
	LDI  R@0,LOW(@2*2+(@3))
	LDI  R@1,HIGH(@2*2+(@3))
	.ENDM

	.MACRO __GETD1N
	LDI  R30,LOW(@0)
	LDI  R31,HIGH(@0)
	LDI  R22,BYTE3(@0)
	LDI  R23,BYTE4(@0)
	.ENDM

	.MACRO __GETD2N
	LDI  R26,LOW(@0)
	LDI  R27,HIGH(@0)
	LDI  R24,BYTE3(@0)
	LDI  R25,BYTE4(@0)
	.ENDM

	.MACRO __GETB1MN
	LDS  R30,@0+(@1)
	.ENDM

	.MACRO __GETB1HMN
	LDS  R31,@0+(@1)
	.ENDM

	.MACRO __GETW1MN
	LDS  R30,@0+(@1)
	LDS  R31,@0+(@1)+1
	.ENDM

	.MACRO __GETD1MN
	LDS  R30,@0+(@1)
	LDS  R31,@0+(@1)+1
	LDS  R22,@0+(@1)+2
	LDS  R23,@0+(@1)+3
	.ENDM

	.MACRO __GETBRMN
	LDS  R@0,@1+(@2)
	.ENDM

	.MACRO __GETWRMN
	LDS  R@0,@2+(@3)
	LDS  R@1,@2+(@3)+1
	.ENDM

	.MACRO __GETWRZ
	LDD  R@0,Z+@2
	LDD  R@1,Z+@2+1
	.ENDM

	.MACRO __GETD2Z
	LDD  R26,Z+@0
	LDD  R27,Z+@0+1
	LDD  R24,Z+@0+2
	LDD  R25,Z+@0+3
	.ENDM

	.MACRO __GETB2MN
	LDS  R26,@0+(@1)
	.ENDM

	.MACRO __GETW2MN
	LDS  R26,@0+(@1)
	LDS  R27,@0+(@1)+1
	.ENDM

	.MACRO __GETD2MN
	LDS  R26,@0+(@1)
	LDS  R27,@0+(@1)+1
	LDS  R24,@0+(@1)+2
	LDS  R25,@0+(@1)+3
	.ENDM

	.MACRO __PUTB1MN
	STS  @0+(@1),R30
	.ENDM

	.MACRO __PUTW1MN
	STS  @0+(@1),R30
	STS  @0+(@1)+1,R31
	.ENDM

	.MACRO __PUTD1MN
	STS  @0+(@1),R30
	STS  @0+(@1)+1,R31
	STS  @0+(@1)+2,R22
	STS  @0+(@1)+3,R23
	.ENDM

	.MACRO __PUTB1EN
	LDI  R26,LOW(@0+(@1))
	LDI  R27,HIGH(@0+(@1))
	CALL __EEPROMWRB
	.ENDM

	.MACRO __PUTW1EN
	LDI  R26,LOW(@0+(@1))
	LDI  R27,HIGH(@0+(@1))
	CALL __EEPROMWRW
	.ENDM

	.MACRO __PUTD1EN
	LDI  R26,LOW(@0+(@1))
	LDI  R27,HIGH(@0+(@1))
	CALL __EEPROMWRD
	.ENDM

	.MACRO __PUTBR0MN
	STS  @0+(@1),R0
	.ENDM

	.MACRO __PUTBMRN
	STS  @0+(@1),R@2
	.ENDM

	.MACRO __PUTWMRN
	STS  @0+(@1),R@2
	STS  @0+(@1)+1,R@3
	.ENDM

	.MACRO __PUTBZR
	STD  Z+@1,R@0
	.ENDM

	.MACRO __PUTWZR
	STD  Z+@2,R@0
	STD  Z+@2+1,R@1
	.ENDM

	.MACRO __GETW1R
	MOV  R30,R@0
	MOV  R31,R@1
	.ENDM

	.MACRO __GETW2R
	MOV  R26,R@0
	MOV  R27,R@1
	.ENDM

	.MACRO __GETWRN
	LDI  R@0,LOW(@2)
	LDI  R@1,HIGH(@2)
	.ENDM

	.MACRO __PUTW1R
	MOV  R@0,R30
	MOV  R@1,R31
	.ENDM

	.MACRO __PUTW2R
	MOV  R@0,R26
	MOV  R@1,R27
	.ENDM

	.MACRO __ADDWRN
	SUBI R@0,LOW(-@2)
	SBCI R@1,HIGH(-@2)
	.ENDM

	.MACRO __ADDWRR
	ADD  R@0,R@2
	ADC  R@1,R@3
	.ENDM

	.MACRO __SUBWRN
	SUBI R@0,LOW(@2)
	SBCI R@1,HIGH(@2)
	.ENDM

	.MACRO __SUBWRR
	SUB  R@0,R@2
	SBC  R@1,R@3
	.ENDM

	.MACRO __ANDWRN
	ANDI R@0,LOW(@2)
	ANDI R@1,HIGH(@2)
	.ENDM

	.MACRO __ANDWRR
	AND  R@0,R@2
	AND  R@1,R@3
	.ENDM

	.MACRO __ORWRN
	ORI  R@0,LOW(@2)
	ORI  R@1,HIGH(@2)
	.ENDM

	.MACRO __ORWRR
	OR   R@0,R@2
	OR   R@1,R@3
	.ENDM

	.MACRO __EORWRR
	EOR  R@0,R@2
	EOR  R@1,R@3
	.ENDM

	.MACRO __GETWRS
	LDD  R@0,Y+@2
	LDD  R@1,Y+@2+1
	.ENDM

	.MACRO __PUTBSR
	STD  Y+@1,R@0
	.ENDM

	.MACRO __PUTWSR
	STD  Y+@2,R@0
	STD  Y+@2+1,R@1
	.ENDM

	.MACRO __MOVEWRR
	MOV  R@0,R@2
	MOV  R@1,R@3
	.ENDM

	.MACRO __INWR
	IN   R@0,@2
	IN   R@1,@2+1
	.ENDM

	.MACRO __OUTWR
	OUT  @2+1,R@1
	OUT  @2,R@0
	.ENDM

	.MACRO __CALL1MN
	LDS  R30,@0+(@1)
	LDS  R31,@0+(@1)+1
	ICALL
	.ENDM

	.MACRO __CALL1FN
	LDI  R30,LOW(2*@0+(@1))
	LDI  R31,HIGH(2*@0+(@1))
	CALL __GETW1PF
	ICALL
	.ENDM

	.MACRO __CALL2EN
	PUSH R26
	PUSH R27
	LDI  R26,LOW(@0+(@1))
	LDI  R27,HIGH(@0+(@1))
	CALL __EEPROMRDW
	POP  R27
	POP  R26
	ICALL
	.ENDM

	.MACRO __CALL2EX
	SUBI R26,LOW(-@0)
	SBCI R27,HIGH(-@0)
	CALL __EEPROMRDD
	ICALL
	.ENDM

	.MACRO __GETW1STACK
	IN   R30,SPL
	IN   R31,SPH
	ADIW R30,@0+1
	LD   R0,Z+
	LD   R31,Z
	MOV  R30,R0
	.ENDM

	.MACRO __GETD1STACK
	IN   R30,SPL
	IN   R31,SPH
	ADIW R30,@0+1
	LD   R0,Z+
	LD   R1,Z+
	LD   R22,Z
	MOVW R30,R0
	.ENDM

	.MACRO __NBST
	BST  R@0,@1
	IN   R30,SREG
	LDI  R31,0x40
	EOR  R30,R31
	OUT  SREG,R30
	.ENDM


	.MACRO __PUTB1SN
	LDD  R26,Y+@0
	LDD  R27,Y+@0+1
	SUBI R26,LOW(-@1)
	SBCI R27,HIGH(-@1)
	ST   X,R30
	.ENDM

	.MACRO __PUTW1SN
	LDD  R26,Y+@0
	LDD  R27,Y+@0+1
	SUBI R26,LOW(-@1)
	SBCI R27,HIGH(-@1)
	ST   X+,R30
	ST   X,R31
	.ENDM

	.MACRO __PUTD1SN
	LDD  R26,Y+@0
	LDD  R27,Y+@0+1
	SUBI R26,LOW(-@1)
	SBCI R27,HIGH(-@1)
	CALL __PUTDP1
	.ENDM

	.MACRO __PUTB1SNS
	LDD  R26,Y+@0
	LDD  R27,Y+@0+1
	ADIW R26,@1
	ST   X,R30
	.ENDM

	.MACRO __PUTW1SNS
	LDD  R26,Y+@0
	LDD  R27,Y+@0+1
	ADIW R26,@1
	ST   X+,R30
	ST   X,R31
	.ENDM

	.MACRO __PUTD1SNS
	LDD  R26,Y+@0
	LDD  R27,Y+@0+1
	ADIW R26,@1
	CALL __PUTDP1
	.ENDM

	.MACRO __PUTB1PMN
	LDS  R26,@0
	LDS  R27,@0+1
	SUBI R26,LOW(-@1)
	SBCI R27,HIGH(-@1)
	ST   X,R30
	.ENDM

	.MACRO __PUTW1PMN
	LDS  R26,@0
	LDS  R27,@0+1
	SUBI R26,LOW(-@1)
	SBCI R27,HIGH(-@1)
	ST   X+,R30
	ST   X,R31
	.ENDM

	.MACRO __PUTD1PMN
	LDS  R26,@0
	LDS  R27,@0+1
	SUBI R26,LOW(-@1)
	SBCI R27,HIGH(-@1)
	CALL __PUTDP1
	.ENDM

	.MACRO __PUTB1PMNS
	LDS  R26,@0
	LDS  R27,@0+1
	ADIW R26,@1
	ST   X,R30
	.ENDM

	.MACRO __PUTW1PMNS
	LDS  R26,@0
	LDS  R27,@0+1
	ADIW R26,@1
	ST   X+,R30
	ST   X,R31
	.ENDM

	.MACRO __PUTD1PMNS
	LDS  R26,@0
	LDS  R27,@0+1
	ADIW R26,@1
	CALL __PUTDP1
	.ENDM

	.MACRO __PUTB1RN
	MOVW R26,R@0
	SUBI R26,LOW(-@1)
	SBCI R27,HIGH(-@1)
	ST   X,R30
	.ENDM

	.MACRO __PUTW1RN
	MOVW R26,R@0
	SUBI R26,LOW(-@1)
	SBCI R27,HIGH(-@1)
	ST   X+,R30
	ST   X,R31
	.ENDM

	.MACRO __PUTD1RN
	MOVW R26,R@0
	SUBI R26,LOW(-@1)
	SBCI R27,HIGH(-@1)
	CALL __PUTDP1
	.ENDM

	.MACRO __PUTB1RNS
	MOVW R26,R@0
	ADIW R26,@1
	ST   X,R30
	.ENDM

	.MACRO __PUTW1RNS
	MOVW R26,R@0
	ADIW R26,@1
	ST   X+,R30
	ST   X,R31
	.ENDM

	.MACRO __PUTD1RNS
	MOVW R26,R@0
	ADIW R26,@1
	CALL __PUTDP1
	.ENDM

	.MACRO __PUTB1RON
	MOV  R26,R@0
	MOV  R27,R@1
	SUBI R26,LOW(-@2)
	SBCI R27,HIGH(-@2)
	ST   X,R30
	.ENDM

	.MACRO __PUTW1RON
	MOV  R26,R@0
	MOV  R27,R@1
	SUBI R26,LOW(-@2)
	SBCI R27,HIGH(-@2)
	ST   X+,R30
	ST   X,R31
	.ENDM

	.MACRO __PUTD1RON
	MOV  R26,R@0
	MOV  R27,R@1
	SUBI R26,LOW(-@2)
	SBCI R27,HIGH(-@2)
	CALL __PUTDP1
	.ENDM

	.MACRO __PUTB1RONS
	MOV  R26,R@0
	MOV  R27,R@1
	ADIW R26,@2
	ST   X,R30
	.ENDM

	.MACRO __PUTW1RONS
	MOV  R26,R@0
	MOV  R27,R@1
	ADIW R26,@2
	ST   X+,R30
	ST   X,R31
	.ENDM

	.MACRO __PUTD1RONS
	MOV  R26,R@0
	MOV  R27,R@1
	ADIW R26,@2
	CALL __PUTDP1
	.ENDM


	.MACRO __GETB1SX
	MOVW R30,R28
	SUBI R30,LOW(-@0)
	SBCI R31,HIGH(-@0)
	LD   R30,Z
	.ENDM

	.MACRO __GETB1HSX
	MOVW R30,R28
	SUBI R30,LOW(-@0)
	SBCI R31,HIGH(-@0)
	LD   R31,Z
	.ENDM

	.MACRO __GETW1SX
	MOVW R30,R28
	SUBI R30,LOW(-@0)
	SBCI R31,HIGH(-@0)
	LD   R0,Z+
	LD   R31,Z
	MOV  R30,R0
	.ENDM

	.MACRO __GETD1SX
	MOVW R30,R28
	SUBI R30,LOW(-@0)
	SBCI R31,HIGH(-@0)
	LD   R0,Z+
	LD   R1,Z+
	LD   R22,Z+
	LD   R23,Z
	MOVW R30,R0
	.ENDM

	.MACRO __GETB2SX
	MOVW R26,R28
	SUBI R26,LOW(-@0)
	SBCI R27,HIGH(-@0)
	LD   R26,X
	.ENDM

	.MACRO __GETW2SX
	MOVW R26,R28
	SUBI R26,LOW(-@0)
	SBCI R27,HIGH(-@0)
	LD   R0,X+
	LD   R27,X
	MOV  R26,R0
	.ENDM

	.MACRO __GETD2SX
	MOVW R26,R28
	SUBI R26,LOW(-@0)
	SBCI R27,HIGH(-@0)
	LD   R0,X+
	LD   R1,X+
	LD   R24,X+
	LD   R25,X
	MOVW R26,R0
	.ENDM

	.MACRO __GETBRSX
	MOVW R30,R28
	SUBI R30,LOW(-@1)
	SBCI R31,HIGH(-@1)
	LD   R@0,Z
	.ENDM

	.MACRO __GETWRSX
	MOVW R30,R28
	SUBI R30,LOW(-@2)
	SBCI R31,HIGH(-@2)
	LD   R@0,Z+
	LD   R@1,Z
	.ENDM

	.MACRO __GETBRSX2
	MOVW R26,R28
	SUBI R26,LOW(-@1)
	SBCI R27,HIGH(-@1)
	LD   R@0,X
	.ENDM

	.MACRO __GETWRSX2
	MOVW R26,R28
	SUBI R26,LOW(-@2)
	SBCI R27,HIGH(-@2)
	LD   R@0,X+
	LD   R@1,X
	.ENDM

	.MACRO __LSLW8SX
	MOVW R30,R28
	SUBI R30,LOW(-@0)
	SBCI R31,HIGH(-@0)
	LD   R31,Z
	CLR  R30
	.ENDM

	.MACRO __PUTB1SX
	MOVW R26,R28
	SUBI R26,LOW(-@0)
	SBCI R27,HIGH(-@0)
	ST   X,R30
	.ENDM

	.MACRO __PUTW1SX
	MOVW R26,R28
	SUBI R26,LOW(-@0)
	SBCI R27,HIGH(-@0)
	ST   X+,R30
	ST   X,R31
	.ENDM

	.MACRO __PUTD1SX
	MOVW R26,R28
	SUBI R26,LOW(-@0)
	SBCI R27,HIGH(-@0)
	ST   X+,R30
	ST   X+,R31
	ST   X+,R22
	ST   X,R23
	.ENDM

	.MACRO __CLRW1SX
	MOVW R26,R28
	SUBI R26,LOW(-@0)
	SBCI R27,HIGH(-@0)
	ST   X+,R30
	ST   X,R30
	.ENDM

	.MACRO __CLRD1SX
	MOVW R26,R28
	SUBI R26,LOW(-@0)
	SBCI R27,HIGH(-@0)
	ST   X+,R30
	ST   X+,R30
	ST   X+,R30
	ST   X,R30
	.ENDM

	.MACRO __PUTB2SX
	MOVW R30,R28
	SUBI R30,LOW(-@0)
	SBCI R31,HIGH(-@0)
	ST   Z,R26
	.ENDM

	.MACRO __PUTW2SX
	MOVW R30,R28
	SUBI R30,LOW(-@0)
	SBCI R31,HIGH(-@0)
	ST   Z+,R26
	ST   Z,R27
	.ENDM

	.MACRO __PUTD2SX
	MOVW R30,R28
	SUBI R30,LOW(-@0)
	SBCI R31,HIGH(-@0)
	ST   Z+,R26
	ST   Z+,R27
	ST   Z+,R24
	ST   Z,R25
	.ENDM

	.MACRO __PUTBSRX
	MOVW R30,R28
	SUBI R30,LOW(-@1)
	SBCI R31,HIGH(-@1)
	ST   Z,R@0
	.ENDM

	.MACRO __PUTWSRX
	MOVW R30,R28
	SUBI R30,LOW(-@2)
	SBCI R31,HIGH(-@2)
	ST   Z+,R@0
	ST   Z,R@1
	.ENDM

	.MACRO __PUTB1SNX
	MOVW R26,R28
	SUBI R26,LOW(-@0)
	SBCI R27,HIGH(-@0)
	LD   R0,X+
	LD   R27,X
	MOV  R26,R0
	SUBI R26,LOW(-@1)
	SBCI R27,HIGH(-@1)
	ST   X,R30
	.ENDM

	.MACRO __PUTW1SNX
	MOVW R26,R28
	SUBI R26,LOW(-@0)
	SBCI R27,HIGH(-@0)
	LD   R0,X+
	LD   R27,X
	MOV  R26,R0
	SUBI R26,LOW(-@1)
	SBCI R27,HIGH(-@1)
	ST   X+,R30
	ST   X,R31
	.ENDM

	.MACRO __PUTD1SNX
	MOVW R26,R28
	SUBI R26,LOW(-@0)
	SBCI R27,HIGH(-@0)
	LD   R0,X+
	LD   R27,X
	MOV  R26,R0
	SUBI R26,LOW(-@1)
	SBCI R27,HIGH(-@1)
	ST   X+,R30
	ST   X+,R31
	ST   X+,R22
	ST   X,R23
	.ENDM

	.MACRO __MULBRR
	MULS R@0,R@1
	MOVW R30,R0
	.ENDM

	.MACRO __MULBRRU
	MUL  R@0,R@1
	MOVW R30,R0
	.ENDM

	.MACRO __MULBRR0
	MULS R@0,R@1
	.ENDM

	.MACRO __MULBRRU0
	MUL  R@0,R@1
	.ENDM

	.MACRO __MULBNWRU
	LDI  R26,@2
	MUL  R26,R@0
	MOVW R30,R0
	MUL  R26,R@1
	ADD  R31,R0
	.ENDM

;NAME DEFINITIONS FOR GLOBAL VARIABLES ALLOCATED TO REGISTERS
	.DEF _dem=R4
	.DEF _dem_msb=R5
	.DEF _vi_tri=R6
	.DEF _vi_tri_msb=R7
	.DEF _i=R8
	.DEF _i_msb=R9
	.DEF _len=R11
	.DEF _currentLevel=R12
	.DEF _currentLevel_msb=R13
	.DEF __lcd_x=R10

	.CSEG
	.ORG 0x00

;START OF CODE MARKER
__START_OF_CODE:

;INTERRUPT VECTORS
	JMP  __RESET
	JMP  0x00
	JMP  0x00
	JMP  0x00
	JMP  0x00
	JMP  0x00
	JMP  0x00
	JMP  0x00
	JMP  0x00
	JMP  0x00
	JMP  0x00
	JMP  0x00
	JMP  0x00
	JMP  0x00
	JMP  _timer1_ovf_isr
	JMP  0x00
	JMP  0x00
	JMP  0x00
	JMP  0x00
	JMP  0x00
	JMP  0x00
	JMP  0x00
	JMP  0x00
	JMP  0x00
	JMP  0x00
	JMP  0x00
	JMP  0x00
	JMP  0x00
	JMP  0x00
	JMP  0x00
	JMP  0x00
	JMP  0x00
	JMP  0x00
	JMP  0x00
	JMP  0x00

_font5x7:
	.DB  0x5,0x7,0x20,0x60,0x0,0x0,0x0,0x0
	.DB  0x0,0x0,0x0,0x5F,0x0,0x0,0x0,0x7
	.DB  0x0,0x7,0x0,0x14,0x7F,0x14,0x7F,0x14
	.DB  0x24,0x2A,0x7F,0x2A,0x12,0x23,0x13,0x8
	.DB  0x64,0x62,0x36,0x49,0x55,0x22,0x50,0x0
	.DB  0x5,0x3,0x0,0x0,0x0,0x1C,0x22,0x41
	.DB  0x0,0x0,0x41,0x22,0x1C,0x0,0x8,0x2A
	.DB  0x1C,0x2A,0x8,0x8,0x8,0x3E,0x8,0x8
	.DB  0x0,0x50,0x30,0x0,0x0,0x8,0x8,0x8
	.DB  0x8,0x8,0x0,0x30,0x30,0x0,0x0,0x20
	.DB  0x10,0x8,0x4,0x2,0x3E,0x51,0x49,0x45
	.DB  0x3E,0x0,0x42,0x7F,0x40,0x0,0x42,0x61
	.DB  0x51,0x49,0x46,0x21,0x41,0x45,0x4B,0x31
	.DB  0x18,0x14,0x12,0x7F,0x10,0x27,0x45,0x45
	.DB  0x45,0x39,0x3C,0x4A,0x49,0x49,0x30,0x1
	.DB  0x71,0x9,0x5,0x3,0x36,0x49,0x49,0x49
	.DB  0x36,0x6,0x49,0x49,0x29,0x1E,0x0,0x36
	.DB  0x36,0x0,0x0,0x0,0x56,0x36,0x0,0x0
	.DB  0x0,0x8,0x14,0x22,0x41,0x14,0x14,0x14
	.DB  0x14,0x14,0x41,0x22,0x14,0x8,0x0,0x2
	.DB  0x1,0x51,0x9,0x6,0x32,0x49,0x79,0x41
	.DB  0x3E,0x7E,0x11,0x11,0x11,0x7E,0x7F,0x49
	.DB  0x49,0x49,0x36,0x3E,0x41,0x41,0x41,0x22
	.DB  0x7F,0x41,0x41,0x22,0x1C,0x7F,0x49,0x49
	.DB  0x49,0x41,0x7F,0x9,0x9,0x1,0x1,0x3E
	.DB  0x41,0x41,0x51,0x32,0x7F,0x8,0x8,0x8
	.DB  0x7F,0x0,0x41,0x7F,0x41,0x0,0x20,0x40
	.DB  0x41,0x3F,0x1,0x7F,0x8,0x14,0x22,0x41
	.DB  0x7F,0x40,0x40,0x40,0x40,0x7F,0x2,0x4
	.DB  0x2,0x7F,0x7F,0x4,0x8,0x10,0x7F,0x3E
	.DB  0x41,0x41,0x41,0x3E,0x7F,0x9,0x9,0x9
	.DB  0x6,0x3E,0x41,0x51,0x21,0x5E,0x7F,0x9
	.DB  0x19,0x29,0x46,0x46,0x49,0x49,0x49,0x31
	.DB  0x1,0x1,0x7F,0x1,0x1,0x3F,0x40,0x40
	.DB  0x40,0x3F,0x1F,0x20,0x40,0x20,0x1F,0x7F
	.DB  0x20,0x18,0x20,0x7F,0x63,0x14,0x8,0x14
	.DB  0x63,0x3,0x4,0x78,0x4,0x3,0x61,0x51
	.DB  0x49,0x45,0x43,0x0,0x0,0x7F,0x41,0x41
	.DB  0x2,0x4,0x8,0x10,0x20,0x41,0x41,0x7F
	.DB  0x0,0x0,0x4,0x2,0x1,0x2,0x4,0x40
	.DB  0x40,0x40,0x40,0x40,0x0,0x1,0x2,0x4
	.DB  0x0,0x20,0x54,0x54,0x54,0x78,0x7F,0x48
	.DB  0x44,0x44,0x38,0x38,0x44,0x44,0x44,0x20
	.DB  0x38,0x44,0x44,0x48,0x7F,0x38,0x54,0x54
	.DB  0x54,0x18,0x8,0x7E,0x9,0x1,0x2,0x8
	.DB  0x14,0x54,0x54,0x3C,0x7F,0x8,0x4,0x4
	.DB  0x78,0x0,0x44,0x7D,0x40,0x0,0x20,0x40
	.DB  0x44,0x3D,0x0,0x0,0x7F,0x10,0x28,0x44
	.DB  0x0,0x41,0x7F,0x40,0x0,0x7C,0x4,0x18
	.DB  0x4,0x78,0x7C,0x8,0x4,0x4,0x78,0x38
	.DB  0x44,0x44,0x44,0x38,0x7C,0x14,0x14,0x14
	.DB  0x8,0x8,0x14,0x14,0x18,0x7C,0x7C,0x8
	.DB  0x4,0x4,0x8,0x48,0x54,0x54,0x54,0x20
	.DB  0x4,0x3F,0x44,0x40,0x20,0x3C,0x40,0x40
	.DB  0x20,0x7C,0x1C,0x20,0x40,0x20,0x1C,0x3C
	.DB  0x40,0x30,0x40,0x3C,0x44,0x28,0x10,0x28
	.DB  0x44,0xC,0x50,0x50,0x50,0x3C,0x44,0x64
	.DB  0x54,0x4C,0x44,0x0,0x8,0x36,0x41,0x0
	.DB  0x0,0x0,0x7F,0x0,0x0,0x0,0x41,0x36
	.DB  0x8,0x0,0x2,0x1,0x2,0x4,0x2,0x7F
	.DB  0x41,0x41,0x41,0x7F
__glcd_mask:
	.DB  0x0,0x1,0x3,0x7,0xF,0x1F,0x3F,0x7F
	.DB  0xFF

;GLOBAL REGISTER VARIABLES INITIALIZATION
__REG_VARS:
	.DB  0x0,0x0,0xA,0x0
	.DB  0x0,0x0,0x0,0x1
	.DB  0x0,0x0

_0x3:
	.DB  0x0,0x0,0x1,0x0,0x2,0x0,0x3,0x0
	.DB  0x4,0x0,0x5,0x0,0x6,0x0,0x7,0x0
	.DB  0x8
_0x0:
	.DB  0x44,0x61,0x6E,0x67,0x20,0x64,0x69,0x20
	.DB  0x63,0x68,0x75,0x79,0x65,0x6E,0x0,0x44
	.DB  0x61,0x6E,0x67,0x20,0x64,0x69,0x20,0x63
	.DB  0x68,0x75,0x79,0x65,0x6E,0x20,0x2E,0x2E
	.DB  0x2E,0x0,0x44,0x65,0x6E,0x20,0x74,0x61
	.DB  0x6E,0x67,0x0,0x44,0x65,0x6E,0x20,0x74
	.DB  0x61,0x6E,0x67,0x3A,0x20,0x0
_0x2060003:
	.DB  0x80,0xC0
_0x2080060:
	.DB  0x1
_0x2080000:
	.DB  0x2D,0x4E,0x41,0x4E,0x0,0x49,0x4E,0x46
	.DB  0x0

__GLOBAL_INI_TBL:
	.DW  0x0A
	.DW  0x04
	.DW  __REG_VARS*2

	.DW  0x11
	.DW  _keypad
	.DW  _0x3*2

	.DW  0x0F
	.DW  _0x42
	.DW  _0x0*2

	.DW  0x13
	.DW  _0x42+15
	.DW  _0x0*2+15

	.DW  0x09
	.DW  _0x42+34
	.DW  _0x0*2+34

	.DW  0x0B
	.DW  _0x42+43
	.DW  _0x0*2+43

	.DW  0x09
	.DW  _0x42+54
	.DW  _0x0*2+34

	.DW  0x0B
	.DW  _0x42+63
	.DW  _0x0*2+43

	.DW  0x02
	.DW  __base_y_G103
	.DW  _0x2060003*2

	.DW  0x01
	.DW  __seed_G104
	.DW  _0x2080060*2

_0xFFFFFFFF:
	.DW  0

#define __GLOBAL_INI_TBL_PRESENT 1

__RESET:
	CLI
	CLR  R30
	OUT  EECR,R30

;INTERRUPT VECTORS ARE PLACED
;AT THE START OF FLASH
	LDI  R31,1
	OUT  MCUCR,R31
	OUT  MCUCR,R30
	STS  XMCRB,R30

;CLEAR R2-R14
	LDI  R24,(14-2)+1
	LDI  R26,2
	CLR  R27
__CLEAR_REG:
	ST   X+,R30
	DEC  R24
	BRNE __CLEAR_REG

;CLEAR SRAM
	LDI  R24,LOW(__CLEAR_SRAM_SIZE)
	LDI  R25,HIGH(__CLEAR_SRAM_SIZE)
	LDI  R26,LOW(__SRAM_START)
	LDI  R27,HIGH(__SRAM_START)
__CLEAR_SRAM:
	ST   X+,R30
	SBIW R24,1
	BRNE __CLEAR_SRAM

;GLOBAL VARIABLES INITIALIZATION
	LDI  R30,LOW(__GLOBAL_INI_TBL*2)
	LDI  R31,HIGH(__GLOBAL_INI_TBL*2)
__GLOBAL_INI_NEXT:
	LPM  R24,Z+
	LPM  R25,Z+
	SBIW R24,0
	BREQ __GLOBAL_INI_END
	LPM  R26,Z+
	LPM  R27,Z+
	LPM  R0,Z+
	LPM  R1,Z+
	MOVW R22,R30
	MOVW R30,R0
__GLOBAL_INI_LOOP:
	LPM  R0,Z+
	ST   X+,R0
	SBIW R24,1
	BRNE __GLOBAL_INI_LOOP
	MOVW R30,R22
	RJMP __GLOBAL_INI_NEXT
__GLOBAL_INI_END:

	OUT  RAMPZ,R24

;HARDWARE STACK POINTER INITIALIZATION
	LDI  R30,LOW(__SRAM_END-__HEAP_SIZE)
	OUT  SPL,R30
	LDI  R30,HIGH(__SRAM_END-__HEAP_SIZE)
	OUT  SPH,R30

;DATA STACK POINTER INITIALIZATION
	LDI  R28,LOW(__SRAM_START+__DSTACK_SIZE)
	LDI  R29,HIGH(__SRAM_START+__DSTACK_SIZE)

	JMP  _main

	.ESEG
	.ORG 0

	.DSEG
	.ORG 0x500

	.CSEG
;/*
; * elevator.c
; *
; * Created: 12/29/2022 10:30:54 PM
; * Author: Who
; */
;
;#include <io.h>
	#ifndef __SLEEP_DEFINED__
	#define __SLEEP_DEFINED__
	.EQU __se_bit=0x20
	.EQU __sm_mask=0x1C
	.EQU __sm_powerdown=0x10
	.EQU __sm_powersave=0x18
	.EQU __sm_standby=0x14
	.EQU __sm_ext_standby=0x1C
	.EQU __sm_adc_noise_red=0x08
	.SET power_ctrl_reg=mcucr
	#endif
;#include <hardware.c>
;#include <delay.h>
;#include <glcd.h>
;#include <font5x7.h>
;#include <alcd.h>
;
;int keypad[3][3] = {0,1,2,3,4,5,6,7,8};

	.DSEG
;
;void init_register() {
; 0000 0009 void init_register() {

	.CSEG
_init_register:
; .FSTART _init_register
;    // ban phim ma tran
;    DDRF = 0b11101010;
	LDI  R30,LOW(234)
	STS  97,R30
;    // DC
;    DDRB.4 = 1;
	SBI  0x17,4
;    // servo
;    DDRC.7 = 1;
	SBI  0x14,7
;    //for servo inverse (nhung ko xuat xung PWM, can than cai USB drive)
;    DDRB.5 = 1;
	SBI  0x17,5
;    ADCSRA=0x83;
	LDI  R30,LOW(131)
	OUT  0x6,R30
;}
	RET
; .FEND
;
;// NOTE: DUNG CO CHE TAY VAO CAI LDR OR YOU WILL NEVER SEE IT COMING
;int read() {
_read:
; .FSTART _read
;    char a, i, j;
;    for(j = 0; j < 3; j++ ){
	CALL __SAVELOCR4
;	a -> R17
;	i -> R16
;	j -> R19
	LDI  R19,LOW(0)
_0xB:
	CPI  R19,3
	BRSH _0xC
;        if (j == 0) PORTF = 0b11111101;
	CPI  R19,0
	BRNE _0xD
	LDI  R30,LOW(253)
	STS  98,R30
;        if (j == 1) PORTF = 0b11110111;
_0xD:
	CPI  R19,1
	BRNE _0xE
	LDI  R30,LOW(247)
	STS  98,R30
;        if (j == 2) PORTF = 0b11011111;
_0xE:
	CPI  R19,2
	BRNE _0xF
	LDI  R30,LOW(223)
	STS  98,R30
;        for(i = 0; i < 3; i++){
_0xF:
	LDI  R16,LOW(0)
_0x11:
	CPI  R16,3
	BRSH _0x12
;            if (i == 0){
	CPI  R16,0
	BRNE _0x13
;                a = PINF&0x04;
	IN   R30,0x0
	ANDI R30,LOW(0x4)
	MOV  R17,R30
;                if(a != 0x04) {
	CPI  R17,4
	BREQ _0x14
;                    return keypad[i][j];
	CALL SUBOPT_0x0
	RJMP _0x212000B
;                }
;            }
_0x14:
;            if (i == 1){
_0x13:
	CPI  R16,1
	BRNE _0x15
;                a = PINF&0x10;
	IN   R30,0x0
	ANDI R30,LOW(0x10)
	MOV  R17,R30
;                if (a != 0x10) {
	CPI  R17,16
	BREQ _0x16
;                    return keypad[i][j];
	CALL SUBOPT_0x0
	RJMP _0x212000B
;                }
;            }
_0x16:
;            if (i == 2){
_0x15:
	CPI  R16,2
	BRNE _0x17
;                a = PINF&0x01;
	IN   R30,0x0
	ANDI R30,LOW(0x1)
	MOV  R17,R30
;                if (a != 0x01) {
	CPI  R17,1
	BREQ _0x18
;                    return keypad[i][j];
	CALL SUBOPT_0x0
	RJMP _0x212000B
;                }
;            }
_0x18:
;        }
_0x17:
	SUBI R16,-1
	RJMP _0x11
_0x12:
;    }
	SUBI R19,-1
	RJMP _0xB
_0xC:
;    return -1;
	LDI  R30,LOW(65535)
	LDI  R31,HIGH(65535)
_0x212000B:
	CALL __LOADLOCR4
	ADIW R28,4
	RET
;}
; .FEND
;
;
;void init_glcd(int bias, int vlcd) {
_init_glcd:
; .FSTART _init_glcd
;    GLCDINIT_t glcd_init_data;
;    glcd_init_data.font=font5x7;
	ST   -Y,R27
	ST   -Y,R26
	SBIW R28,8
;	bias -> Y+10
;	vlcd -> Y+8
;	glcd_init_data -> Y+0
	LDI  R30,LOW(_font5x7*2)
	LDI  R31,HIGH(_font5x7*2)
	ST   Y,R30
	STD  Y+1,R31
;    glcd_init_data.temp_coef=140;
	LDD  R30,Y+6
	ANDI R30,LOW(0xFC)
	STD  Y+6,R30
;    glcd_init_data.bias=bias;
	LDD  R30,Y+10
	ANDI R30,LOW(0x7)
	LSL  R30
	LSL  R30
	MOV  R0,R30
	LDD  R30,Y+6
	ANDI R30,LOW(0xE3)
	OR   R30,R0
	STD  Y+6,R30
;    glcd_init_data.vlcd=vlcd;
	LDD  R30,Y+8
	ANDI R30,0x7F
	MOV  R0,R30
	LDD  R30,Y+7
	ANDI R30,LOW(0x80)
	OR   R30,R0
	STD  Y+7,R30
;    glcd_init(&glcd_init_data);
	MOVW R26,R28
	RCALL _glcd_init
;}
	JMP  _0x2120008
; .FEND
;
;
;void init_lcd() {
_init_lcd:
; .FSTART _init_lcd
;    lcd_init(16);
	LDI  R26,LOW(16)
	CALL _lcd_init
;    lcd_clear();
	CALL _lcd_clear
;}
	RET
; .FEND
;
;
;void adjustSpeed(int speed) {
_adjustSpeed:
; .FSTART _adjustSpeed
;    OCR0 = 255 - speed;
	ST   -Y,R27
	ST   -Y,R26
;	speed -> Y+0
	LD   R26,Y
	LDI  R30,LOW(255)
	SUB  R30,R26
	OUT  0x31,R30
;}
	ADIW R28,2
	RET
; .FEND
;
;void quay_nguoc_DC() {
_quay_nguoc_DC:
; .FSTART _quay_nguoc_DC
;    PORTB.5 = 1;
	SBI  0x18,5
;}
	RET
; .FEND
;
;void quay_DC() {
_quay_DC:
; .FSTART _quay_DC
;    adjustSpeed(120);
	LDI  R26,LOW(120)
	LDI  R27,0
	RCALL _adjustSpeed
;}
	RET
; .FEND
;
;void dung_DC() {
_dung_DC:
; .FSTART _dung_DC
;    adjustSpeed(0);
	LDI  R26,LOW(0)
	LDI  R27,0
	RCALL _adjustSpeed
;    PORTB.5 = 0;
	CBI  0x18,5
;}
	RET
; .FEND
;
;void init_timer() {
_init_timer:
; .FSTART _init_timer
;    // khoi tao timer 0 cho dong co
;    ASSR=0<<AS0;
	LDI  R30,LOW(0)
	OUT  0x30,R30
;    TCCR0=(1<<WGM00) | (1<<COM01) | (1<<COM00) | (0<<WGM01) | (1<<CS02) | (0<<CS01) | (0<<CS00);
	LDI  R30,LOW(116)
	OUT  0x33,R30
;    TCNT0=0x00;
	LDI  R30,LOW(0)
	OUT  0x32,R30
;    adjustSpeed(0);
	LDI  R26,LOW(0)
	LDI  R27,0
	RCALL _adjustSpeed
;
;    // Timer 1 (0.1 ms) cho den va servo
;    TCCR1A=(0<<COM1A1) | (0<<COM1A0) | (0<<COM1B1) | (0<<COM1B0) | (0<<COM1C1) | (0<<COM1C0) | (0<<WGM11) | (0<<WGM10);
	LDI  R30,LOW(0)
	OUT  0x2F,R30
;    TCCR1B=(0<<ICNC1) | (0<<ICES1) | (0<<WGM13) | (0<<WGM12) | (0<<CS12) | (0<<CS11) | (1<<CS10);
	LDI  R30,LOW(1)
	OUT  0x2E,R30
;    TCNT1H=0xFC;
	LDI  R30,LOW(252)
	OUT  0x2D,R30
;    TCNT1L=0xE0;
	LDI  R30,LOW(224)
	OUT  0x2C,R30
;    TIMSK=(0<<OCIE2) | (0<<TOIE2) | (0<<TICIE1) | (0<<OCIE1A) | (0<<OCIE1B) | (1<<TOIE1) | (0<<OCIE0) | (0<<TOIE0);
	LDI  R30,LOW(4)
	OUT  0x37,R30
;    ETIMSK=(0<<TICIE3) | (0<<OCIE3A) | (0<<OCIE3B) | (0<<TOIE3) | (0<<OCIE3C) | (0<<OCIE1C);
	LDI  R30,LOW(0)
	STS  125,R30
;    #asm("sei")
	sei
;}
	RET
; .FEND
;#include <delay.h>
;#include <stdlib.h>
;#include <glcd.h>
;#include <alcd.h>
;#define servo_1 PORTC.7
;
;int dem = 0, vi_tri = 10;
;char what[16];
;int i;
;// dieu khien cac tang trong thang may
;bool order[9] = {false, false, false, false, false, false, false, false, false};
;
;
;// dieu khien trang thai len / xuong
;bool len = true;
;int currentLevel = 0;
;
;// Timer1 overflow interrupt service routine (delay 0.1 ms)
;interrupt [TIM1_OVF] void timer1_ovf_isr(void)
; 0000 001D {
_timer1_ovf_isr:
; .FSTART _timer1_ovf_isr
	ST   -Y,R0
	ST   -Y,R1
	ST   -Y,R15
	ST   -Y,R22
	ST   -Y,R23
	ST   -Y,R24
	ST   -Y,R25
	ST   -Y,R26
	ST   -Y,R27
	ST   -Y,R30
	ST   -Y,R31
	IN   R30,SREG
	ST   -Y,R30
; 0000 001E     int input;
; 0000 001F     // Reinitialize Timer1 value
; 0000 0020     TCNT1H=0xFCE0 >> 8;
	ST   -Y,R17
	ST   -Y,R16
;	input -> R16,R17
	LDI  R30,LOW(252)
	OUT  0x2D,R30
; 0000 0021     TCNT1L=0xFCE0 & 0xff;
	LDI  R30,LOW(224)
	OUT  0x2C,R30
; 0000 0022 
; 0000 0023     // servo
; 0000 0024     dem++;
	MOVW R30,R4
	ADIW R30,1
	MOVW R4,R30
; 0000 0025     if(dem >= 200)
	LDI  R30,LOW(200)
	LDI  R31,HIGH(200)
	CP   R4,R30
	CPC  R5,R31
	BRLT _0x1D
; 0000 0026         dem = 0;
	CLR  R4
	CLR  R5
; 0000 0027     if (dem < vi_tri)
_0x1D:
	__CPWRR 4,5,6,7
	BRGE _0x1E
; 0000 0028         servo_1 = 1;
	SBI  0x15,7
; 0000 0029     else
	RJMP _0x21
_0x1E:
; 0000 002A         servo_1 = 0;
	CBI  0x15,7
; 0000 002B 
; 0000 002C     // ~ delay 199 ms ban phim ma tran
; 0000 002D     if (dem == 199) {
_0x21:
	LDI  R30,LOW(199)
	LDI  R31,HIGH(199)
	CP   R30,R4
	CPC  R31,R5
	BRNE _0x24
; 0000 002E         input = read();
	RCALL _read
	MOVW R16,R30
; 0000 002F         if (input != -1)
	LDI  R30,LOW(65535)
	LDI  R31,HIGH(65535)
	CP   R30,R16
	CPC  R31,R17
	BREQ _0x25
; 0000 0030             order[input] = true;
	LDI  R26,LOW(_order)
	LDI  R27,HIGH(_order)
	ADD  R26,R16
	ADC  R27,R17
	LDI  R30,LOW(1)
	ST   X,R30
; 0000 0031     }
_0x25:
; 0000 0032 }
_0x24:
	LD   R16,Y+
	LD   R17,Y+
	LD   R30,Y+
	OUT  SREG,R30
	LD   R31,Y+
	LD   R30,Y+
	LD   R27,Y+
	LD   R26,Y+
	LD   R25,Y+
	LD   R24,Y+
	LD   R23,Y+
	LD   R22,Y+
	LD   R15,Y+
	LD   R1,Y+
	LD   R0,Y+
	RETI
; .FEND
;// led 7 doan
;// void khoi_tao_led_7_doan(){
;//     DDRF = 0xFF;
;//     DDRD = 0xFF;
;//     DDRA.7 = 1;
;
;// }
;// void hienThiLed7Doan(int i, unsigned int j){
;//     if(i==0){
;//         PORTF = 0x80 + j;
;//     PORTD = 0xF9;
;//     PORTA = 0x7F;
;//     }
;//     if(i==1){
;//     PORTF = 0x86 + j;
;//     PORTD = 0xFF;
;//     PORTA = 0x7F;
;//     }
;//     if(i==2){
;//     PORTF = 0x84 + j;
;//     PORTD = 0xF1;
;
;//     PORTA = 0xFF;
;//     }
;//     if(i==3){
;//     PORTF = 0x84 + j;
;//     PORTD = 0xF5;
;//     PORTE = 0x00;
;//     PORTA = 0x7F;
;//     }
;//     if(i==4){
;//     PORTF = 0x82 + j;
;//     PORTD = 0xF7;
;//     PORTA = 0x7F;
;//     }
;//     if(i==5){
;//     PORTF = 0xA0 + j;
;//     PORTD = 0xF5;
;//     PORTA = 0x7F;
;//     }if(i==6){
;//     PORTF = 0xA0 + j;
;//     PORTD = 0xF1;
;//     PORTA = 0x7F;
;//     }
;//     if(i==7){
;//     PORTF = 0x84 + j;
;//     PORTD = 0xFF;
;//     PORTA = 0x7F;
;//     }
;
;//     if(i==8){
;//     PORTF = 0x80 + j;
;//     PORTD = 0xF1;
;//     PORTA = 0x7F;
;//     }
;//     if(i==9){
;//     PORTF = 0x80 + j;
;//     PORTD = 0xF5;
;//     PORTA = 0x7F;
;//     }if(i==10){
;//     PORTF = 0x26 + j;
;//     PORTD = 0xFF;
;//     PORTA = 0xFF;
;//     }
;
;//     delay_ms(1);
;// }
;
;void thang_may() {
; 0000 0077 void thang_may() {
_thang_may:
; .FSTART _thang_may
; 0000 0078     // neu ko co tang nao dc bam thi thoi ko lam gi ca
; 0000 0079     for (i = 0; i <= 8; i++){
	CLR  R8
	CLR  R9
_0x27:
	CALL SUBOPT_0x1
	BRLT _0x28
; 0000 007A         if (order[i] == true){
	CALL SUBOPT_0x2
	CPI  R26,LOW(0x1)
	BREQ _0x28
; 0000 007B             break;
; 0000 007C         }
; 0000 007D         if (i == 8){
	CALL SUBOPT_0x1
	BRNE _0x2A
; 0000 007E             return;
	RET
; 0000 007F         }
; 0000 0080     }
_0x2A:
	MOVW R30,R8
	ADIW R30,1
	MOVW R8,R30
	RJMP _0x27
_0x28:
; 0000 0081     // thiet lap trang thai len/xuong
; 0000 0082     if (len) {
	TST  R11
	BREQ _0x2B
; 0000 0083         for (i = currentLevel; i <= 8; i++) {
	MOVW R8,R12
_0x2D:
	CALL SUBOPT_0x1
	BRLT _0x2E
; 0000 0084             // neu len tang 8 roi ma ko co yeu cau thi chuyen che do cho di xuong
; 0000 0085             if (i == 8 && order[i] == false) {
	CALL SUBOPT_0x1
	BRNE _0x30
	CALL SUBOPT_0x2
	CPI  R26,LOW(0x0)
	BREQ _0x31
_0x30:
	RJMP _0x2F
_0x31:
; 0000 0086                 len = false;
	CLR  R11
; 0000 0087             }
; 0000 0088             else if (order[i] == true) {
	RJMP _0x32
_0x2F:
	CALL SUBOPT_0x2
	CPI  R26,LOW(0x1)
	BREQ _0x2E
; 0000 0089                 break;
; 0000 008A             }
; 0000 008B         }
_0x32:
	MOVW R30,R8
	ADIW R30,1
	MOVW R8,R30
	RJMP _0x2D
_0x2E:
; 0000 008C     }
; 0000 008D     if (!len) {
_0x2B:
	TST  R11
	BRNE _0x34
; 0000 008E         for (i = currentLevel; i >= 0; i--) {
	MOVW R8,R12
_0x36:
	CLR  R0
	CP   R8,R0
	CPC  R9,R0
	BRLT _0x37
; 0000 008F             // tuong tu voi doan di len. neu da o tang 0
; 0000 0090             if (i == 0 && order[i] == false) {
	CLR  R0
	CP   R0,R8
	CPC  R0,R9
	BRNE _0x39
	CALL SUBOPT_0x2
	CPI  R26,LOW(0x0)
	BREQ _0x3A
_0x39:
	RJMP _0x38
_0x3A:
; 0000 0091                 len = true;
	LDI  R30,LOW(1)
	MOV  R11,R30
; 0000 0092                 return;
	RET
; 0000 0093             }
; 0000 0094             else if (order[i] == true) {
_0x38:
	CALL SUBOPT_0x2
	CPI  R26,LOW(0x1)
	BREQ _0x37
; 0000 0095                 break;
; 0000 0096             }
; 0000 0097         }
	MOVW R30,R8
	SBIW R30,1
	MOVW R8,R30
	RJMP _0x36
_0x37:
; 0000 0098     }
; 0000 0099 
; 0000 009A     // trong truong hop co tang dc bam, mo servo 1 goc 90 do trong 2s
; 0000 009B     vi_tri = 15;
_0x34:
	CALL SUBOPT_0x3
; 0000 009C     delay_ms(2000);
; 0000 009D     vi_tri = 10;
; 0000 009E 
; 0000 009F     if (len)
	TST  R11
	BREQ _0x3D
; 0000 00A0         quay_DC();
	RCALL _quay_DC
; 0000 00A1     else
	RJMP _0x3E
_0x3D:
; 0000 00A2         quay_nguoc_DC();
	RCALL _quay_nguoc_DC
; 0000 00A3 
; 0000 00A4     while (order[currentLevel] == false) {
_0x3E:
_0x3F:
	LDI  R26,LOW(_order)
	LDI  R27,HIGH(_order)
	ADD  R26,R12
	ADC  R27,R13
	LD   R30,X
	CPI  R30,0
	BRNE _0x41
; 0000 00A5         glcd_clear();
	RCALL _glcd_clear
; 0000 00A6         glcd_outtextxy(5, 10, "Dang di chuyen");
	LDI  R30,LOW(5)
	ST   -Y,R30
	LDI  R30,LOW(10)
	ST   -Y,R30
	__POINTW2MN _0x42,0
	CALL SUBOPT_0x4
; 0000 00A7 
; 0000 00A8         lcd_clear();
; 0000 00A9         lcd_gotoxy(0, 0);
	LDI  R26,LOW(0)
	CALL _lcd_gotoxy
; 0000 00AA         lcd_puts("Dang di chuyen ...");
	__POINTW2MN _0x42,15
	CALL _lcd_puts
; 0000 00AB         if (len){
	TST  R11
	BREQ _0x43
; 0000 00AC             currentLevel++;
	MOVW R30,R12
	ADIW R30,1
	RJMP _0x49
; 0000 00AD             // for(i = currentLevel; i<=8; i++){
; 0000 00AE             //     if(order[i]){
; 0000 00AF             //         lcd_putchar(i+'0');
; 0000 00B0             //     }
; 0000 00B1             // }
; 0000 00B2             // for(i = currentLevel-1; i>=0; i--){
; 0000 00B3             //     if(order[i]){
; 0000 00B4             //         lcd_putchar(i+'0');
; 0000 00B5             //     }
; 0000 00B6             // }
; 0000 00B7 
; 0000 00B8         } else {
_0x43:
; 0000 00B9             currentLevel--;
	MOVW R30,R12
	SBIW R30,1
_0x49:
	MOVW R12,R30
; 0000 00BA             // for(i = currentLevel; i>=0; i--){
; 0000 00BB             //     if(order[i]){
; 0000 00BC             //         lcd_putchar(i+'0');
; 0000 00BD             //     }
; 0000 00BE             // }
; 0000 00BF             // for(i = currentLevel+1; i<=8; i++){
; 0000 00C0             //     if(order[i]){
; 0000 00C1             //         lcd_putchar(i+'0');
; 0000 00C2             //     }
; 0000 00C3             // }
; 0000 00C4         }
; 0000 00C5         // glcd_clear();
; 0000 00C6         itoa(currentLevel, what);
	CALL SUBOPT_0x5
; 0000 00C7         glcd_outtextxy(5, 25, "Den tang");
	__POINTW2MN _0x42,34
	CALL SUBOPT_0x6
; 0000 00C8         glcd_outtextxy(55, 25, what);
	CALL _glcd_outtextxy
; 0000 00C9 
; 0000 00CA 
; 0000 00CB         lcd_gotoxy(0, 1);
	LDI  R30,LOW(0)
	ST   -Y,R30
	LDI  R26,LOW(1)
	CALL _lcd_gotoxy
; 0000 00CC         lcd_puts("Den tang: ");
	__POINTW2MN _0x42,43
	CALL SUBOPT_0x7
; 0000 00CD         lcd_putchar(currentLevel+'0');
; 0000 00CE         //hienThiLed7Doan(currentLevel, 0b00000001);
; 0000 00CF         delay_ms(1000);
	LDI  R26,LOW(1000)
	LDI  R27,HIGH(1000)
	CALL _delay_ms
; 0000 00D0     }
	RJMP _0x3F
_0x41:
; 0000 00D1     glcd_clear();
	RCALL _glcd_clear
; 0000 00D2     itoa(currentLevel, what);
	CALL SUBOPT_0x5
; 0000 00D3     glcd_outtextxy(5, 25, "Den tang");
	__POINTW2MN _0x42,54
	CALL SUBOPT_0x6
; 0000 00D4     glcd_outtextxy(55, 25, what);
	CALL SUBOPT_0x4
; 0000 00D5 
; 0000 00D6     lcd_clear();
; 0000 00D7     lcd_gotoxy(0, 1);
	LDI  R26,LOW(1)
	CALL _lcd_gotoxy
; 0000 00D8     lcd_puts("Den tang: ");
	__POINTW2MN _0x42,63
	CALL SUBOPT_0x7
; 0000 00D9     lcd_putchar(currentLevel+'0');
; 0000 00DA     // lcd_gotoxy(0, 0);
; 0000 00DB     // lcd_puts("Current: ");
; 0000 00DC     // lcd_putchar(currentLevel+'0');
; 0000 00DD     // lcd_gotoxy(0, 1);
; 0000 00DE     // lcd_puts("Next: ");
; 0000 00DF     // if (len){
; 0000 00E0     //     for(i = currentLevel+1; i<=8; i++){
; 0000 00E1     //             if(order[i]){
; 0000 00E2     //                 lcd_putchar(i+'0');
; 0000 00E3     //             }
; 0000 00E4     //         }
; 0000 00E5     //     for(i = currentLevel-1; i>=0; i--){
; 0000 00E6     //         if(order[i]){
; 0000 00E7     //             lcd_putchar(i+'0');
; 0000 00E8     //         }
; 0000 00E9     //     }
; 0000 00EA 
; 0000 00EB     // } else {
; 0000 00EC     //     for(i = currentLevel-1; i>=0; i--){
; 0000 00ED     //             if(order[i]){
; 0000 00EE     //                 lcd_putchar(i+'0');
; 0000 00EF     //             }
; 0000 00F0     //         }
; 0000 00F1     //     for(i = currentLevel+1; i<=8; i++){
; 0000 00F2     //         if(order[i]){
; 0000 00F3     //             lcd_putchar(i+'0');
; 0000 00F4     //         }
; 0000 00F5     //     }
; 0000 00F6     // }
; 0000 00F7 
; 0000 00F8 
; 0000 00F9     order[currentLevel] = false;
	LDI  R26,LOW(_order)
	LDI  R27,HIGH(_order)
	ADD  R26,R12
	ADC  R27,R13
	LDI  R30,LOW(0)
	ST   X,R30
; 0000 00FA     dung_DC();
	RCALL _dung_DC
; 0000 00FB     vi_tri = 15;
	CALL SUBOPT_0x3
; 0000 00FC     delay_ms(2000);
; 0000 00FD     vi_tri = 10;
; 0000 00FE 
; 0000 00FF }
	RET
; .FEND

	.DSEG
_0x42:
	.BYTE 0x4A
;
;void main(void)
; 0000 0102 {

	.CSEG
_main:
; .FSTART _main
; 0000 0103     //khoi_tao_led_7_doan();
; 0000 0104     init_glcd(4, 66);
	LDI  R30,LOW(4)
	LDI  R31,HIGH(4)
	ST   -Y,R31
	ST   -Y,R30
	LDI  R26,LOW(66)
	LDI  R27,0
	RCALL _init_glcd
; 0000 0105     init_lcd();
	RCALL _init_lcd
; 0000 0106     init_register();
	RCALL _init_register
; 0000 0107     init_timer();
	RCALL _init_timer
; 0000 0108     itoa(currentLevel, what);
	ST   -Y,R13
	ST   -Y,R12
	LDI  R26,LOW(_what)
	LDI  R27,HIGH(_what)
	CALL _itoa
; 0000 0109     glcd_outtextxy(30, 20, what);
	LDI  R30,LOW(30)
	ST   -Y,R30
	LDI  R30,LOW(20)
	ST   -Y,R30
	LDI  R26,LOW(_what)
	LDI  R27,HIGH(_what)
	CALL _glcd_outtextxy
; 0000 010A 
; 0000 010B while (1)
_0x45:
; 0000 010C     {
; 0000 010D     // Please write your application code here
; 0000 010E         thang_may();
	RCALL _thang_may
; 0000 010F     }
	RJMP _0x45
; 0000 0110 }
_0x48:
	RJMP _0x48
; .FEND
	#ifndef __SLEEP_DEFINED__
	#define __SLEEP_DEFINED__
	.EQU __se_bit=0x20
	.EQU __sm_mask=0x1C
	.EQU __sm_powerdown=0x10
	.EQU __sm_powersave=0x18
	.EQU __sm_standby=0x14
	.EQU __sm_ext_standby=0x1C
	.EQU __sm_adc_noise_red=0x08
	.SET power_ctrl_reg=mcucr
	#endif

	.CSEG
_pcd8544_delay_G100:
; .FSTART _pcd8544_delay_G100
	RET
; .FEND
_pcd8544_wrbus_G100:
; .FSTART _pcd8544_wrbus_G100
	ST   -Y,R26
	ST   -Y,R17
	LDS  R30,101
	ANDI R30,0xEF
	STS  101,R30
	LDI  R17,LOW(8)
_0x2000004:
	RCALL _pcd8544_delay_G100
	LDD  R30,Y+1
	ANDI R30,LOW(0x80)
	BREQ _0x2000006
	LDS  R30,101
	ORI  R30,2
	RJMP _0x20000A0
_0x2000006:
	LDS  R30,101
	ANDI R30,0xFD
_0x20000A0:
	STS  101,R30
	LDD  R30,Y+1
	LSL  R30
	STD  Y+1,R30
	RCALL _pcd8544_delay_G100
	LDS  R30,101
	ORI  R30,4
	STS  101,R30
	RCALL _pcd8544_delay_G100
	LDS  R30,101
	ANDI R30,0xFB
	STS  101,R30
	SUBI R17,LOW(1)
	BRNE _0x2000004
	LDS  R30,101
	ORI  R30,0x10
	STS  101,R30
	LDD  R17,Y+0
	JMP  _0x2120003
; .FEND
_pcd8544_wrcmd:
; .FSTART _pcd8544_wrcmd
	ST   -Y,R26
	LDS  R30,101
	ANDI R30,0xFE
	STS  101,R30
	LD   R26,Y
	RCALL _pcd8544_wrbus_G100
	JMP  _0x2120005
; .FEND
_pcd8544_wrdata_G100:
; .FSTART _pcd8544_wrdata_G100
	ST   -Y,R26
	LDS  R30,101
	ORI  R30,1
	STS  101,R30
	LD   R26,Y
	RCALL _pcd8544_wrbus_G100
	JMP  _0x2120005
; .FEND
_pcd8544_setaddr_G100:
; .FSTART _pcd8544_setaddr_G100
	ST   -Y,R26
	ST   -Y,R17
	LDD  R30,Y+1
	LSR  R30
	LSR  R30
	LSR  R30
	MOV  R17,R30
	LDI  R30,LOW(84)
	MUL  R30,R17
	MOVW R30,R0
	MOVW R26,R30
	LDD  R30,Y+2
	LDI  R31,0
	ADD  R30,R26
	ADC  R31,R27
	STS  _gfx_addr_G100,R30
	STS  _gfx_addr_G100+1,R31
	MOV  R30,R17
	LDD  R17,Y+0
	JMP  _0x2120002
; .FEND
_pcd8544_gotoxy:
; .FSTART _pcd8544_gotoxy
	ST   -Y,R26
	LDD  R30,Y+1
	ORI  R30,0x80
	MOV  R26,R30
	RCALL _pcd8544_wrcmd
	LDD  R30,Y+1
	ST   -Y,R30
	LDD  R26,Y+1
	RCALL _pcd8544_setaddr_G100
	ORI  R30,0x40
	MOV  R26,R30
	RCALL _pcd8544_wrcmd
	JMP  _0x2120003
; .FEND
_pcd8544_rdbyte:
; .FSTART _pcd8544_rdbyte
	ST   -Y,R26
	LDD  R30,Y+1
	ST   -Y,R30
	LDD  R26,Y+1
	RCALL _pcd8544_gotoxy
	LDS  R30,_gfx_addr_G100
	LDS  R31,_gfx_addr_G100+1
	SUBI R30,LOW(-_gfx_buffer_G100)
	SBCI R31,HIGH(-_gfx_buffer_G100)
	LD   R30,Z
	JMP  _0x2120003
; .FEND
_pcd8544_wrbyte:
; .FSTART _pcd8544_wrbyte
	ST   -Y,R26
	CALL SUBOPT_0x8
	LD   R26,Y
	STD  Z+0,R26
	RCALL _pcd8544_wrdata_G100
	JMP  _0x2120005
; .FEND
_glcd_init:
; .FSTART _glcd_init
	ST   -Y,R27
	ST   -Y,R26
	CALL __SAVELOCR4
	LDS  R30,100
	ORI  R30,0x10
	CALL SUBOPT_0x9
	ORI  R30,0x10
	STS  101,R30
	LDS  R30,100
	ORI  R30,4
	CALL SUBOPT_0x9
	ANDI R30,0xFB
	STS  101,R30
	LDS  R30,100
	ORI  R30,2
	STS  100,R30
	LDS  R30,100
	ORI  R30,1
	STS  100,R30
	LDS  R30,100
	ORI  R30,8
	CALL SUBOPT_0x9
	ANDI R30,0XF7
	STS  101,R30
	LDI  R26,LOW(10)
	LDI  R27,0
	CALL _delay_ms
	LDS  R30,101
	ORI  R30,8
	STS  101,R30
	LDD  R30,Y+4
	LDD  R31,Y+4+1
	SBIW R30,0
	BREQ _0x2000008
	LDD  R30,Z+6
	ANDI R30,LOW(0x3)
	MOV  R17,R30
	LDD  R30,Y+4
	LDD  R31,Y+4+1
	LDD  R30,Z+6
	LSR  R30
	LSR  R30
	ANDI R30,LOW(0x7)
	MOV  R16,R30
	LDD  R30,Y+4
	LDD  R31,Y+4+1
	LDD  R30,Z+7
	ANDI R30,0x7F
	MOV  R19,R30
	LDD  R26,Y+4
	LDD  R27,Y+4+1
	CALL __GETW1P
	__PUTW1MN _glcd_state,4
	ADIW R26,2
	CALL __GETW1P
	__PUTW1MN _glcd_state,25
	LDD  R26,Y+4
	LDD  R27,Y+4+1
	ADIW R26,4
	CALL __GETW1P
	RJMP _0x20000A1
_0x2000008:
	LDI  R17,LOW(0)
	LDI  R16,LOW(3)
	LDI  R19,LOW(50)
	LDI  R30,LOW(0)
	LDI  R31,HIGH(0)
	__PUTW1MN _glcd_state,4
	__PUTW1MN _glcd_state,25
_0x20000A1:
	__PUTW1MN _glcd_state,27
	LDI  R26,LOW(33)
	RCALL _pcd8544_wrcmd
	MOV  R30,R17
	ORI  R30,4
	MOV  R26,R30
	RCALL _pcd8544_wrcmd
	MOV  R30,R16
	ORI  R30,0x10
	MOV  R26,R30
	RCALL _pcd8544_wrcmd
	MOV  R30,R19
	ORI  R30,0x80
	MOV  R26,R30
	RCALL _pcd8544_wrcmd
	LDI  R26,LOW(32)
	RCALL _pcd8544_wrcmd
	LDI  R26,LOW(1)
	RCALL _glcd_display
	LDI  R30,LOW(1)
	STS  _glcd_state,R30
	LDI  R30,LOW(0)
	__PUTB1MN _glcd_state,1
	LDI  R30,LOW(1)
	__PUTB1MN _glcd_state,6
	__PUTB1MN _glcd_state,7
	__PUTB1MN _glcd_state,8
	LDI  R30,LOW(255)
	__PUTB1MN _glcd_state,9
	LDI  R30,LOW(1)
	__PUTB1MN _glcd_state,16
	__POINTW1MN _glcd_state,17
	ST   -Y,R31
	ST   -Y,R30
	LDI  R30,LOW(255)
	ST   -Y,R30
	LDI  R26,LOW(8)
	LDI  R27,0
	CALL _memset
	RCALL _glcd_clear
	LDI  R30,LOW(1)
	CALL __LOADLOCR4
	RJMP _0x212000A
; .FEND
_glcd_display:
; .FSTART _glcd_display
	ST   -Y,R26
	LD   R30,Y
	CPI  R30,0
	BREQ _0x200000A
	LDI  R30,LOW(12)
	RJMP _0x200000B
_0x200000A:
	LDI  R30,LOW(8)
_0x200000B:
	MOV  R26,R30
	RCALL _pcd8544_wrcmd
	JMP  _0x2120005
; .FEND
_glcd_clear:
; .FSTART _glcd_clear
	CALL __SAVELOCR4
	LDI  R19,0
	__GETB1MN _glcd_state,1
	CPI  R30,0
	BREQ _0x200000D
	LDI  R19,LOW(255)
_0x200000D:
	LDI  R30,LOW(0)
	ST   -Y,R30
	LDI  R26,LOW(0)
	RCALL _pcd8544_gotoxy
	__GETWRN 16,17,504
_0x200000E:
	MOVW R30,R16
	__SUBWRN 16,17,1
	SBIW R30,0
	BREQ _0x2000010
	MOV  R26,R19
	RCALL _pcd8544_wrbyte
	RJMP _0x200000E
_0x2000010:
	LDI  R30,LOW(0)
	ST   -Y,R30
	LDI  R26,LOW(0)
	RCALL _glcd_moveto
	CALL __LOADLOCR4
	JMP  _0x2120001
; .FEND
_pcd8544_wrmasked_G100:
; .FSTART _pcd8544_wrmasked_G100
	ST   -Y,R26
	ST   -Y,R17
	LDD  R30,Y+5
	ST   -Y,R30
	LDD  R26,Y+5
	RCALL _pcd8544_rdbyte
	MOV  R17,R30
	LDD  R30,Y+1
	CPI  R30,LOW(0x7)
	BREQ _0x2000020
	CPI  R30,LOW(0x8)
	BRNE _0x2000021
_0x2000020:
	LDD  R30,Y+3
	ST   -Y,R30
	LDD  R26,Y+2
	CALL _glcd_mappixcolor1bit
	STD  Y+3,R30
	RJMP _0x2000022
_0x2000021:
	CPI  R30,LOW(0x3)
	BRNE _0x2000024
	LDD  R30,Y+3
	COM  R30
	STD  Y+3,R30
	RJMP _0x2000025
_0x2000024:
	CPI  R30,0
	BRNE _0x2000026
_0x2000025:
_0x2000022:
	LDD  R30,Y+2
	COM  R30
	AND  R17,R30
	RJMP _0x2000027
_0x2000026:
	CPI  R30,LOW(0x2)
	BRNE _0x2000028
_0x2000027:
	LDD  R30,Y+2
	LDD  R26,Y+3
	AND  R30,R26
	OR   R17,R30
	RJMP _0x200001E
_0x2000028:
	CPI  R30,LOW(0x1)
	BRNE _0x2000029
	LDD  R30,Y+2
	LDD  R26,Y+3
	AND  R30,R26
	EOR  R17,R30
	RJMP _0x200001E
_0x2000029:
	CPI  R30,LOW(0x4)
	BRNE _0x200001E
	LDD  R30,Y+2
	COM  R30
	LDD  R26,Y+3
	OR   R30,R26
	AND  R17,R30
_0x200001E:
	MOV  R26,R17
	RCALL _pcd8544_wrbyte
	LDD  R17,Y+0
_0x212000A:
	ADIW R28,6
	RET
; .FEND
_glcd_block:
; .FSTART _glcd_block
	ST   -Y,R26
	SBIW R28,3
	CALL __SAVELOCR6
	LDD  R26,Y+16
	CPI  R26,LOW(0x54)
	BRSH _0x200002C
	LDD  R26,Y+15
	CPI  R26,LOW(0x30)
	BRSH _0x200002C
	LDD  R26,Y+14
	CPI  R26,LOW(0x0)
	BREQ _0x200002C
	LDD  R26,Y+13
	CPI  R26,LOW(0x0)
	BRNE _0x200002B
_0x200002C:
	RJMP _0x2120009
_0x200002B:
	LDD  R30,Y+14
	STD  Y+8,R30
	LDD  R26,Y+16
	CLR  R27
	LDD  R30,Y+14
	LDI  R31,0
	ADD  R26,R30
	ADC  R27,R31
	CPI  R26,LOW(0x55)
	LDI  R30,HIGH(0x55)
	CPC  R27,R30
	BRLO _0x200002E
	LDD  R26,Y+16
	LDI  R30,LOW(84)
	SUB  R30,R26
	STD  Y+14,R30
_0x200002E:
	LDD  R18,Y+13
	LDD  R26,Y+15
	CLR  R27
	LDD  R30,Y+13
	LDI  R31,0
	ADD  R26,R30
	ADC  R27,R31
	SBIW R26,49
	BRLO _0x200002F
	LDD  R26,Y+15
	LDI  R30,LOW(48)
	SUB  R30,R26
	STD  Y+13,R30
_0x200002F:
	LDD  R26,Y+9
	CPI  R26,LOW(0x6)
	BREQ PC+2
	RJMP _0x2000030
	LDD  R30,Y+12
	CPI  R30,LOW(0x1)
	BRNE _0x2000034
	RJMP _0x2120009
_0x2000034:
	CPI  R30,LOW(0x3)
	BRNE _0x2000037
	__GETW1MN _glcd_state,27
	SBIW R30,0
	BRNE _0x2000036
	RJMP _0x2120009
_0x2000036:
_0x2000037:
	LDD  R16,Y+8
	LDD  R30,Y+13
	LSR  R30
	LSR  R30
	LSR  R30
	MOV  R19,R30
	MOV  R30,R18
	ANDI R30,LOW(0x7)
	BRNE _0x2000039
	LDD  R26,Y+13
	CP   R18,R26
	BREQ _0x2000038
_0x2000039:
	MOV  R26,R16
	CLR  R27
	MOV  R30,R19
	LDI  R31,0
	CALL __MULW12U
	LDD  R26,Y+10
	LDD  R27,Y+10+1
	CALL SUBOPT_0xA
	LSR  R18
	LSR  R18
	LSR  R18
	MOV  R21,R19
_0x200003B:
	PUSH R21
	SUBI R21,-1
	MOV  R30,R18
	POP  R26
	CP   R30,R26
	BRLO _0x200003D
	MOV  R17,R16
_0x200003E:
	MOV  R30,R17
	SUBI R17,1
	CPI  R30,0
	BREQ _0x2000040
	CALL SUBOPT_0xB
	RJMP _0x200003E
_0x2000040:
	RJMP _0x200003B
_0x200003D:
_0x2000038:
	LDD  R26,Y+14
	CP   R16,R26
	BREQ _0x2000041
	LDD  R30,Y+14
	LDD  R26,Y+10
	LDD  R27,Y+10+1
	LDI  R31,0
	CALL SUBOPT_0xA
	LDD  R30,Y+13
	ANDI R30,LOW(0x7)
	BREQ _0x2000042
	SUBI R19,-LOW(1)
_0x2000042:
	LDI  R18,LOW(0)
_0x2000043:
	PUSH R18
	SUBI R18,-1
	MOV  R30,R19
	POP  R26
	CP   R26,R30
	BRSH _0x2000045
	LDD  R17,Y+14
_0x2000046:
	PUSH R17
	SUBI R17,-1
	MOV  R30,R16
	POP  R26
	CP   R26,R30
	BRSH _0x2000048
	CALL SUBOPT_0xB
	RJMP _0x2000046
_0x2000048:
	LDD  R30,Y+14
	LDD  R26,Y+6
	LDD  R27,Y+6+1
	LDI  R31,0
	CALL SUBOPT_0xA
	RJMP _0x2000043
_0x2000045:
_0x2000041:
_0x2000030:
	LDD  R30,Y+15
	ANDI R30,LOW(0x7)
	MOV  R19,R30
_0x2000049:
	LDD  R30,Y+13
	CPI  R30,0
	BRNE PC+2
	RJMP _0x200004B
	LDD  R30,Y+10
	LDD  R31,Y+10+1
	STD  Y+6,R30
	STD  Y+6+1,R31
	LDI  R17,LOW(0)
	LDD  R16,Y+16
	CPI  R19,0
	BREQ PC+2
	RJMP _0x200004C
	LDD  R26,Y+13
	CPI  R26,LOW(0x8)
	BRSH PC+2
	RJMP _0x200004D
	LDD  R30,Y+9
	CPI  R30,0
	BREQ _0x2000052
	CPI  R30,LOW(0x3)
	BRNE _0x2000053
_0x2000052:
	RJMP _0x2000054
_0x2000053:
	CPI  R30,LOW(0x7)
	BRNE _0x2000055
_0x2000054:
	RJMP _0x2000056
_0x2000055:
	CPI  R30,LOW(0x8)
	BRNE _0x2000057
_0x2000056:
	RJMP _0x2000058
_0x2000057:
	CPI  R30,LOW(0x9)
	BRNE _0x2000059
_0x2000058:
	RJMP _0x200005A
_0x2000059:
	CPI  R30,LOW(0xA)
	BRNE _0x200005B
_0x200005A:
	ST   -Y,R16
	LDD  R26,Y+16
	RCALL _pcd8544_gotoxy
	RJMP _0x2000050
_0x200005B:
	CPI  R30,LOW(0x6)
	BRNE _0x2000050
	CALL SUBOPT_0xC
_0x2000050:
_0x200005D:
	PUSH R17
	SUBI R17,-1
	LDD  R30,Y+14
	POP  R26
	CP   R26,R30
	BRSH _0x200005F
	LDD  R26,Y+9
	CPI  R26,LOW(0x6)
	BRNE _0x2000060
	CALL SUBOPT_0xD
	ST   -Y,R31
	ST   -Y,R30
	CALL SUBOPT_0x8
	LD   R26,Z
	CALL _glcd_writemem
	RJMP _0x2000061
_0x2000060:
	LDD  R30,Y+9
	CPI  R30,LOW(0x9)
	BRNE _0x2000065
	LDI  R21,LOW(0)
	RJMP _0x2000066
_0x2000065:
	CPI  R30,LOW(0xA)
	BRNE _0x2000064
	LDI  R21,LOW(255)
	RJMP _0x2000066
_0x2000064:
	CALL SUBOPT_0xD
	CALL SUBOPT_0xE
	MOV  R21,R30
	LDD  R30,Y+9
	CPI  R30,LOW(0x7)
	BREQ _0x200006D
	CPI  R30,LOW(0x8)
	BRNE _0x200006E
_0x200006D:
_0x2000066:
	CALL SUBOPT_0xF
	MOV  R21,R30
	RJMP _0x200006F
_0x200006E:
	CPI  R30,LOW(0x3)
	BRNE _0x2000071
	COM  R21
	RJMP _0x2000072
_0x2000071:
	CPI  R30,0
	BRNE _0x2000074
_0x2000072:
_0x200006F:
	MOV  R26,R21
	RCALL _pcd8544_wrdata_G100
	RJMP _0x200006B
_0x2000074:
	CALL SUBOPT_0x10
	LDI  R30,LOW(255)
	ST   -Y,R30
	LDD  R26,Y+13
	RCALL _pcd8544_wrmasked_G100
_0x200006B:
_0x2000061:
	RJMP _0x200005D
_0x200005F:
	LDD  R30,Y+15
	SUBI R30,-LOW(8)
	STD  Y+15,R30
	LDD  R30,Y+13
	SUBI R30,LOW(8)
	STD  Y+13,R30
	RJMP _0x2000075
_0x200004D:
	LDD  R21,Y+13
	LDI  R18,LOW(0)
	LDI  R30,LOW(0)
	STD  Y+13,R30
	RJMP _0x2000076
_0x200004C:
	MOV  R30,R19
	LDD  R26,Y+13
	ADD  R26,R30
	CPI  R26,LOW(0x9)
	BRSH _0x2000077
	LDD  R18,Y+13
	LDI  R30,LOW(0)
	STD  Y+13,R30
	RJMP _0x2000078
_0x2000077:
	LDI  R30,LOW(8)
	SUB  R30,R19
	MOV  R18,R30
_0x2000078:
	ST   -Y,R19
	MOV  R26,R18
	CALL _glcd_getmask
	MOV  R20,R30
	LDD  R30,Y+9
	CPI  R30,LOW(0x6)
	BRNE _0x200007C
	CALL SUBOPT_0xC
_0x200007D:
	PUSH R17
	SUBI R17,-1
	LDD  R30,Y+14
	POP  R26
	CP   R26,R30
	BRSH _0x200007F
	CALL SUBOPT_0x8
	LD   R30,Z
	AND  R30,R20
	MOV  R26,R30
	MOV  R30,R19
	CALL __LSRB12
	CALL SUBOPT_0x11
	MOV  R30,R19
	MOV  R26,R20
	CALL __LSRB12
	COM  R30
	AND  R30,R1
	OR   R21,R30
	CALL SUBOPT_0xD
	ST   -Y,R31
	ST   -Y,R30
	MOV  R26,R21
	CALL _glcd_writemem
	RJMP _0x200007D
_0x200007F:
	RJMP _0x200007B
_0x200007C:
	CPI  R30,LOW(0x9)
	BRNE _0x2000080
	LDI  R21,LOW(0)
	RJMP _0x2000081
_0x2000080:
	CPI  R30,LOW(0xA)
	BRNE _0x2000087
	LDI  R21,LOW(255)
_0x2000081:
	CALL SUBOPT_0xF
	MOV  R26,R30
	MOV  R30,R19
	CALL __LSLB12
	MOV  R21,R30
_0x2000084:
	PUSH R17
	SUBI R17,-1
	LDD  R30,Y+14
	POP  R26
	CP   R26,R30
	BRSH _0x2000086
	CALL SUBOPT_0x10
	ST   -Y,R20
	LDI  R26,LOW(0)
	RCALL _pcd8544_wrmasked_G100
	RJMP _0x2000084
_0x2000086:
	RJMP _0x200007B
_0x2000087:
_0x2000088:
	PUSH R17
	SUBI R17,-1
	LDD  R30,Y+14
	POP  R26
	CP   R26,R30
	BRSH _0x200008A
	CALL SUBOPT_0x12
	MOV  R26,R30
	MOV  R30,R19
	CALL __LSLB12
	ST   -Y,R30
	ST   -Y,R20
	LDD  R26,Y+13
	RCALL _pcd8544_wrmasked_G100
	RJMP _0x2000088
_0x200008A:
_0x200007B:
	LDD  R30,Y+13
	CPI  R30,0
	BRNE _0x200008B
	RJMP _0x200004B
_0x200008B:
	LDD  R26,Y+13
	CPI  R26,LOW(0x8)
	BRSH _0x200008C
	LDD  R30,Y+13
	SUB  R30,R18
	MOV  R21,R30
	LDI  R30,LOW(0)
	RJMP _0x20000A2
_0x200008C:
	MOV  R21,R19
	LDD  R30,Y+13
	SUBI R30,LOW(8)
_0x20000A2:
	STD  Y+13,R30
	LDI  R17,LOW(0)
	LDD  R30,Y+15
	SUBI R30,-LOW(8)
	STD  Y+15,R30
	LDI  R30,LOW(8)
	SUB  R30,R19
	MOV  R18,R30
	LDD  R16,Y+16
	LDD  R30,Y+10
	LDD  R31,Y+10+1
	STD  Y+6,R30
	STD  Y+6+1,R31
_0x2000076:
	MOV  R30,R21
	LDI  R31,0
	SUBI R30,LOW(-__glcd_mask*2)
	SBCI R31,HIGH(-__glcd_mask*2)
	LPM  R20,Z
	LDD  R30,Y+9
	CPI  R30,LOW(0x6)
	BRNE _0x2000091
	CALL SUBOPT_0xC
_0x2000092:
	PUSH R17
	SUBI R17,-1
	LDD  R30,Y+14
	POP  R26
	CP   R26,R30
	BRSH _0x2000094
	CALL SUBOPT_0x8
	LD   R30,Z
	AND  R30,R20
	MOV  R26,R30
	MOV  R30,R18
	CALL __LSLB12
	CALL SUBOPT_0x11
	MOV  R30,R18
	MOV  R26,R20
	CALL __LSLB12
	COM  R30
	AND  R30,R1
	OR   R21,R30
	CALL SUBOPT_0xD
	ST   -Y,R31
	ST   -Y,R30
	MOV  R26,R21
	CALL _glcd_writemem
	RJMP _0x2000092
_0x2000094:
	RJMP _0x2000090
_0x2000091:
	CPI  R30,LOW(0x9)
	BRNE _0x2000095
	LDI  R21,LOW(0)
	RJMP _0x2000096
_0x2000095:
	CPI  R30,LOW(0xA)
	BRNE _0x200009C
	LDI  R21,LOW(255)
_0x2000096:
	CALL SUBOPT_0xF
	MOV  R26,R30
	MOV  R30,R18
	CALL __LSRB12
	MOV  R21,R30
_0x2000099:
	PUSH R17
	SUBI R17,-1
	LDD  R30,Y+14
	POP  R26
	CP   R26,R30
	BRSH _0x200009B
	CALL SUBOPT_0x10
	ST   -Y,R20
	LDI  R26,LOW(0)
	RCALL _pcd8544_wrmasked_G100
	RJMP _0x2000099
_0x200009B:
	RJMP _0x2000090
_0x200009C:
_0x200009D:
	PUSH R17
	SUBI R17,-1
	LDD  R30,Y+14
	POP  R26
	CP   R26,R30
	BRSH _0x200009F
	CALL SUBOPT_0x12
	MOV  R26,R30
	MOV  R30,R18
	CALL __LSRB12
	ST   -Y,R30
	ST   -Y,R20
	LDD  R26,Y+13
	RCALL _pcd8544_wrmasked_G100
	RJMP _0x200009D
_0x200009F:
_0x2000090:
_0x2000075:
	LDD  R30,Y+8
	LDD  R26,Y+10
	LDD  R27,Y+10+1
	LDI  R31,0
	ADD  R30,R26
	ADC  R31,R27
	STD  Y+10,R30
	STD  Y+10+1,R31
	RJMP _0x2000049
_0x200004B:
_0x2120009:
	CALL __LOADLOCR6
	ADIW R28,17
	RET
; .FEND

	.CSEG
_glcd_clipx:
; .FSTART _glcd_clipx
	CALL SUBOPT_0x13
	BRLT _0x2020003
	LDI  R30,LOW(0)
	LDI  R31,HIGH(0)
	JMP  _0x2120003
_0x2020003:
	LD   R26,Y
	LDD  R27,Y+1
	CPI  R26,LOW(0x54)
	LDI  R30,HIGH(0x54)
	CPC  R27,R30
	BRLT _0x2020004
	LDI  R30,LOW(83)
	LDI  R31,HIGH(83)
	JMP  _0x2120003
_0x2020004:
	LD   R30,Y
	LDD  R31,Y+1
	JMP  _0x2120003
; .FEND
_glcd_clipy:
; .FSTART _glcd_clipy
	CALL SUBOPT_0x13
	BRLT _0x2020005
	LDI  R30,LOW(0)
	LDI  R31,HIGH(0)
	JMP  _0x2120003
_0x2020005:
	LD   R26,Y
	LDD  R27,Y+1
	SBIW R26,48
	BRLT _0x2020006
	LDI  R30,LOW(47)
	LDI  R31,HIGH(47)
	JMP  _0x2120003
_0x2020006:
	LD   R30,Y
	LDD  R31,Y+1
	JMP  _0x2120003
; .FEND
_glcd_getcharw_G101:
; .FSTART _glcd_getcharw_G101
	ST   -Y,R27
	ST   -Y,R26
	SBIW R28,3
	CALL SUBOPT_0x14
	MOVW R16,R30
	MOV  R0,R16
	OR   R0,R17
	BRNE _0x202000B
	LDI  R30,LOW(0)
	LDI  R31,HIGH(0)
	RJMP _0x2120007
_0x202000B:
	CALL SUBOPT_0x15
	STD  Y+7,R0
	CALL SUBOPT_0x15
	STD  Y+6,R0
	CALL SUBOPT_0x15
	STD  Y+8,R0
	LDD  R30,Y+11
	LDD  R26,Y+8
	CP   R30,R26
	BRSH _0x202000C
	LDI  R30,LOW(0)
	LDI  R31,HIGH(0)
	RJMP _0x2120007
_0x202000C:
	MOVW R30,R16
	__ADDWRN 16,17,1
	LPM  R21,Z
	LDD  R26,Y+8
	CLR  R27
	CLR  R30
	ADD  R26,R21
	ADC  R27,R30
	LDD  R30,Y+11
	LDI  R31,0
	CP   R30,R26
	CPC  R31,R27
	BRLO _0x202000D
	LDI  R30,LOW(0)
	LDI  R31,HIGH(0)
	RJMP _0x2120007
_0x202000D:
	LDD  R30,Y+6
	LSR  R30
	LSR  R30
	LSR  R30
	MOV  R20,R30
	LDD  R30,Y+6
	ANDI R30,LOW(0x7)
	BREQ _0x202000E
	SUBI R20,-LOW(1)
_0x202000E:
	LDD  R30,Y+7
	CPI  R30,0
	BREQ _0x202000F
	LDD  R26,Y+9
	LDD  R27,Y+9+1
	ST   X,R30
	LDD  R26,Y+8
	LDD  R30,Y+11
	SUB  R30,R26
	LDI  R31,0
	MOVW R26,R30
	LDD  R30,Y+7
	LDI  R31,0
	CALL __MULW12U
	MOVW R26,R30
	MOV  R30,R20
	LDI  R31,0
	CALL __MULW12U
	ADD  R30,R16
	ADC  R31,R17
	RJMP _0x2120007
_0x202000F:
	MOVW R18,R16
	MOV  R30,R21
	LDI  R31,0
	__ADDWRR 16,17,30,31
_0x2020010:
	LDD  R26,Y+8
	SUBI R26,-LOW(1)
	STD  Y+8,R26
	SUBI R26,LOW(1)
	LDD  R30,Y+11
	CP   R26,R30
	BRSH _0x2020012
	MOVW R30,R18
	__ADDWRN 18,19,1
	LPM  R26,Z
	LDI  R27,0
	MOV  R30,R20
	LDI  R31,0
	CALL __MULW12U
	__ADDWRR 16,17,30,31
	RJMP _0x2020010
_0x2020012:
	MOVW R30,R18
	LPM  R30,Z
	LDD  R26,Y+9
	LDD  R27,Y+9+1
	ST   X,R30
	MOVW R30,R16
_0x2120007:
	CALL __LOADLOCR6
_0x2120008:
	ADIW R28,12
	RET
; .FEND
_glcd_new_line_G101:
; .FSTART _glcd_new_line_G101
	LDI  R30,LOW(0)
	__PUTB1MN _glcd_state,2
	__GETB2MN _glcd_state,3
	CLR  R27
	CALL SUBOPT_0x16
	LDI  R31,0
	ADD  R26,R30
	ADC  R27,R31
	__GETB1MN _glcd_state,7
	LDI  R31,0
	ADD  R26,R30
	ADC  R27,R31
	RCALL _glcd_clipy
	__PUTB1MN _glcd_state,3
	RET
; .FEND
_glcd_putchar:
; .FSTART _glcd_putchar
	ST   -Y,R26
	SBIW R28,1
	CALL SUBOPT_0x14
	SBIW R30,0
	BRNE PC+2
	RJMP _0x202001F
	LDD  R26,Y+7
	CPI  R26,LOW(0xA)
	BRNE _0x2020020
	RJMP _0x2020021
_0x2020020:
	LDD  R30,Y+7
	ST   -Y,R30
	MOVW R26,R28
	ADIW R26,7
	RCALL _glcd_getcharw_G101
	MOVW R20,R30
	SBIW R30,0
	BRNE _0x2020022
	RJMP _0x2120006
_0x2020022:
	__GETB1MN _glcd_state,6
	LDD  R26,Y+6
	ADD  R30,R26
	MOV  R19,R30
	__GETB2MN _glcd_state,2
	CLR  R27
	LDI  R31,0
	ADD  R30,R26
	ADC  R31,R27
	MOVW R16,R30
	__CPWRN 16,17,85
	BRLO _0x2020023
	MOV  R16,R19
	CLR  R17
	RCALL _glcd_new_line_G101
_0x2020023:
	__GETB1MN _glcd_state,2
	ST   -Y,R30
	__GETB1MN _glcd_state,3
	ST   -Y,R30
	LDD  R30,Y+8
	ST   -Y,R30
	CALL SUBOPT_0x16
	ST   -Y,R30
	LDI  R30,LOW(1)
	ST   -Y,R30
	ST   -Y,R21
	ST   -Y,R20
	LDI  R26,LOW(7)
	RCALL _glcd_block
	__GETB1MN _glcd_state,2
	LDD  R26,Y+6
	ADD  R30,R26
	ST   -Y,R30
	__GETB1MN _glcd_state,3
	ST   -Y,R30
	__GETB1MN _glcd_state,6
	ST   -Y,R30
	CALL SUBOPT_0x16
	CALL SUBOPT_0x17
	__GETB1MN _glcd_state,2
	ST   -Y,R30
	__GETB2MN _glcd_state,3
	CALL SUBOPT_0x16
	ADD  R30,R26
	ST   -Y,R30
	ST   -Y,R19
	__GETB1MN _glcd_state,7
	CALL SUBOPT_0x17
	LDI  R30,LOW(84)
	LDI  R31,HIGH(84)
	CP   R30,R16
	CPC  R31,R17
	BRNE _0x2020024
_0x2020021:
	RCALL _glcd_new_line_G101
	RJMP _0x2120006
_0x2020024:
_0x202001F:
	__PUTBMRN _glcd_state,2,16
_0x2120006:
	CALL __LOADLOCR6
	ADIW R28,8
	RET
; .FEND
_glcd_outtextxy:
; .FSTART _glcd_outtextxy
	ST   -Y,R27
	ST   -Y,R26
	ST   -Y,R17
	LDD  R30,Y+4
	ST   -Y,R30
	LDD  R26,Y+4
	RCALL _glcd_moveto
_0x2020025:
	CALL SUBOPT_0x18
	BREQ _0x2020027
	MOV  R26,R17
	RCALL _glcd_putchar
	RJMP _0x2020025
_0x2020027:
	LDD  R17,Y+0
	JMP  _0x2120004
; .FEND
_glcd_moveto:
; .FSTART _glcd_moveto
	ST   -Y,R26
	LDD  R26,Y+1
	CLR  R27
	RCALL _glcd_clipx
	__PUTB1MN _glcd_state,2
	LD   R26,Y
	CLR  R27
	RCALL _glcd_clipy
	__PUTB1MN _glcd_state,3
	JMP  _0x2120003
; .FEND
	#ifndef __SLEEP_DEFINED__
	#define __SLEEP_DEFINED__
	.EQU __se_bit=0x20
	.EQU __sm_mask=0x1C
	.EQU __sm_powerdown=0x10
	.EQU __sm_powersave=0x18
	.EQU __sm_standby=0x14
	.EQU __sm_ext_standby=0x1C
	.EQU __sm_adc_noise_red=0x08
	.SET power_ctrl_reg=mcucr
	#endif

	.DSEG

	.CSEG
__lcd_write_nibble_G103:
; .FSTART __lcd_write_nibble_G103
	ST   -Y,R26
	LD   R30,Y
	ANDI R30,LOW(0x10)
	BREQ _0x2060004
	SBI  0x1B,3
	RJMP _0x2060005
_0x2060004:
	CBI  0x1B,3
_0x2060005:
	LD   R30,Y
	ANDI R30,LOW(0x20)
	BREQ _0x2060006
	SBI  0x1B,4
	RJMP _0x2060007
_0x2060006:
	CBI  0x1B,4
_0x2060007:
	LD   R30,Y
	ANDI R30,LOW(0x40)
	BREQ _0x2060008
	SBI  0x1B,5
	RJMP _0x2060009
_0x2060008:
	CBI  0x1B,5
_0x2060009:
	LD   R30,Y
	ANDI R30,LOW(0x80)
	BREQ _0x206000A
	SBI  0x1B,6
	RJMP _0x206000B
_0x206000A:
	CBI  0x1B,6
_0x206000B:
	__DELAY_USB 13
	SBI  0x1B,2
	__DELAY_USB 13
	CBI  0x1B,2
	__DELAY_USB 13
	RJMP _0x2120005
; .FEND
__lcd_write_data:
; .FSTART __lcd_write_data
	ST   -Y,R26
	LD   R26,Y
	RCALL __lcd_write_nibble_G103
    ld    r30,y
    swap  r30
    st    y,r30
	LD   R26,Y
	RCALL __lcd_write_nibble_G103
	__DELAY_USB 133
	RJMP _0x2120005
; .FEND
_lcd_gotoxy:
; .FSTART _lcd_gotoxy
	ST   -Y,R26
	LD   R30,Y
	LDI  R31,0
	SUBI R30,LOW(-__base_y_G103)
	SBCI R31,HIGH(-__base_y_G103)
	LD   R30,Z
	LDD  R26,Y+1
	ADD  R26,R30
	RCALL __lcd_write_data
	LDD  R10,Y+1
	LD   R30,Y
	STS  __lcd_y,R30
	JMP  _0x2120003
; .FEND
_lcd_clear:
; .FSTART _lcd_clear
	LDI  R26,LOW(2)
	CALL SUBOPT_0x19
	LDI  R26,LOW(12)
	RCALL __lcd_write_data
	LDI  R26,LOW(1)
	CALL SUBOPT_0x19
	LDI  R30,LOW(0)
	STS  __lcd_y,R30
	MOV  R10,R30
	RET
; .FEND
_lcd_putchar:
; .FSTART _lcd_putchar
	ST   -Y,R26
	LD   R26,Y
	CPI  R26,LOW(0xA)
	BREQ _0x2060011
	LDS  R30,__lcd_maxx
	CP   R10,R30
	BRLO _0x2060010
_0x2060011:
	LDI  R30,LOW(0)
	ST   -Y,R30
	LDS  R26,__lcd_y
	SUBI R26,-LOW(1)
	STS  __lcd_y,R26
	RCALL _lcd_gotoxy
	LD   R26,Y
	CPI  R26,LOW(0xA)
	BRNE _0x2060013
	RJMP _0x2120005
_0x2060013:
_0x2060010:
	INC  R10
	SBI  0x1B,0
	LD   R26,Y
	RCALL __lcd_write_data
	CBI  0x1B,0
	RJMP _0x2120005
; .FEND
_lcd_puts:
; .FSTART _lcd_puts
	ST   -Y,R27
	ST   -Y,R26
	ST   -Y,R17
_0x2060014:
	CALL SUBOPT_0x18
	BREQ _0x2060016
	MOV  R26,R17
	RCALL _lcd_putchar
	RJMP _0x2060014
_0x2060016:
	LDD  R17,Y+0
	JMP  _0x2120002
; .FEND
_lcd_init:
; .FSTART _lcd_init
	ST   -Y,R26
	SBI  0x1A,3
	SBI  0x1A,4
	SBI  0x1A,5
	SBI  0x1A,6
	SBI  0x1A,2
	SBI  0x1A,0
	SBI  0x1A,1
	CBI  0x1B,2
	CBI  0x1B,0
	CBI  0x1B,1
	LD   R30,Y
	STS  __lcd_maxx,R30
	SUBI R30,-LOW(128)
	__PUTB1MN __base_y_G103,2
	LD   R30,Y
	SUBI R30,-LOW(192)
	__PUTB1MN __base_y_G103,3
	LDI  R26,LOW(20)
	LDI  R27,0
	CALL _delay_ms
	CALL SUBOPT_0x1A
	CALL SUBOPT_0x1A
	CALL SUBOPT_0x1A
	LDI  R26,LOW(32)
	RCALL __lcd_write_nibble_G103
	__DELAY_USW 200
	LDI  R26,LOW(40)
	RCALL __lcd_write_data
	LDI  R26,LOW(4)
	RCALL __lcd_write_data
	LDI  R26,LOW(133)
	RCALL __lcd_write_data
	LDI  R26,LOW(6)
	RCALL __lcd_write_data
	RCALL _lcd_clear
_0x2120005:
	ADIW R28,1
	RET
; .FEND

	.CSEG
_itoa:
; .FSTART _itoa
	ST   -Y,R27
	ST   -Y,R26
    ld   r26,y+
    ld   r27,y+
    ld   r30,y+
    ld   r31,y+
    adiw r30,0
    brpl __itoa0
    com  r30
    com  r31
    adiw r30,1
    ldi  r22,'-'
    st   x+,r22
__itoa0:
    clt
    ldi  r24,low(10000)
    ldi  r25,high(10000)
    rcall __itoa1
    ldi  r24,low(1000)
    ldi  r25,high(1000)
    rcall __itoa1
    ldi  r24,100
    clr  r25
    rcall __itoa1
    ldi  r24,10
    rcall __itoa1
    mov  r22,r30
    rcall __itoa5
    clr  r22
    st   x,r22
    ret

__itoa1:
    clr	 r22
__itoa2:
    cp   r30,r24
    cpc  r31,r25
    brlo __itoa3
    inc  r22
    sub  r30,r24
    sbc  r31,r25
    brne __itoa2
__itoa3:
    tst  r22
    brne __itoa4
    brts __itoa5
    ret
__itoa4:
    set
__itoa5:
    subi r22,-0x30
    st   x+,r22
    ret
; .FEND

	.DSEG

	.CSEG

	.CSEG
_memset:
; .FSTART _memset
	ST   -Y,R27
	ST   -Y,R26
    ldd  r27,y+1
    ld   r26,y
    adiw r26,0
    breq memset1
    ldd  r31,y+4
    ldd  r30,y+3
    ldd  r22,y+2
memset0:
    st   z+,r22
    sbiw r26,1
    brne memset0
memset1:
    ldd  r30,y+3
    ldd  r31,y+4
_0x2120004:
	ADIW R28,5
	RET
; .FEND

	.CSEG
_glcd_getmask:
; .FSTART _glcd_getmask
	ST   -Y,R26
	LD   R30,Y
	LDI  R31,0
	SUBI R30,LOW(-__glcd_mask*2)
	SBCI R31,HIGH(-__glcd_mask*2)
	LPM  R26,Z
	LDD  R30,Y+1
	CALL __LSLB12
_0x2120003:
	ADIW R28,2
	RET
; .FEND
_glcd_mappixcolor1bit:
; .FSTART _glcd_mappixcolor1bit
	ST   -Y,R26
	ST   -Y,R17
	LDD  R30,Y+1
	CPI  R30,LOW(0x7)
	BREQ _0x20C0007
	CPI  R30,LOW(0xA)
	BRNE _0x20C0008
_0x20C0007:
	LDS  R17,_glcd_state
	RJMP _0x20C0009
_0x20C0008:
	CPI  R30,LOW(0x9)
	BRNE _0x20C000B
	__GETBRMN 17,_glcd_state,1
	RJMP _0x20C0009
_0x20C000B:
	CPI  R30,LOW(0x8)
	BRNE _0x20C0005
	__GETBRMN 17,_glcd_state,16
_0x20C0009:
	__GETB1MN _glcd_state,1
	CPI  R30,0
	BREQ _0x20C000E
	CPI  R17,0
	BREQ _0x20C000F
	LDI  R30,LOW(255)
	LDD  R17,Y+0
	RJMP _0x2120002
_0x20C000F:
	LDD  R30,Y+2
	COM  R30
	LDD  R17,Y+0
	RJMP _0x2120002
_0x20C000E:
	CPI  R17,0
	BRNE _0x20C0011
	LDI  R30,LOW(0)
	LDD  R17,Y+0
	RJMP _0x2120002
_0x20C0011:
_0x20C0005:
	LDD  R30,Y+2
	LDD  R17,Y+0
	RJMP _0x2120002
; .FEND
_glcd_readmem:
; .FSTART _glcd_readmem
	ST   -Y,R27
	ST   -Y,R26
	LDD  R30,Y+2
	CPI  R30,LOW(0x1)
	BRNE _0x20C0015
	LD   R30,Y
	LDD  R31,Y+1
	LPM  R30,Z
	RJMP _0x2120002
_0x20C0015:
	CPI  R30,LOW(0x2)
	BRNE _0x20C0016
	LD   R26,Y
	LDD  R27,Y+1
	CALL __EEPROMRDB
	RJMP _0x2120002
_0x20C0016:
	CPI  R30,LOW(0x3)
	BRNE _0x20C0018
	LD   R26,Y
	LDD  R27,Y+1
	__CALL1MN _glcd_state,25
	RJMP _0x2120002
_0x20C0018:
	LD   R26,Y
	LDD  R27,Y+1
	LD   R30,X
_0x2120002:
	ADIW R28,3
	RET
; .FEND
_glcd_writemem:
; .FSTART _glcd_writemem
	ST   -Y,R26
	LDD  R30,Y+3
	CPI  R30,0
	BRNE _0x20C001C
	LD   R30,Y
	LDD  R26,Y+1
	LDD  R27,Y+1+1
	ST   X,R30
	RJMP _0x20C001B
_0x20C001C:
	CPI  R30,LOW(0x2)
	BRNE _0x20C001D
	LD   R30,Y
	LDD  R26,Y+1
	LDD  R27,Y+1+1
	CALL __EEPROMWRB
	RJMP _0x20C001B
_0x20C001D:
	CPI  R30,LOW(0x3)
	BRNE _0x20C001B
	LDD  R30,Y+1
	LDD  R31,Y+1+1
	ST   -Y,R31
	ST   -Y,R30
	LDD  R26,Y+2
	__CALL1MN _glcd_state,27
_0x20C001B:
_0x2120001:
	ADIW R28,4
	RET
; .FEND

	.CSEG

	.CSEG

	.DSEG
_glcd_state:
	.BYTE 0x1D
_keypad:
	.BYTE 0x12
_what:
	.BYTE 0x10
_order:
	.BYTE 0x9
_gfx_addr_G100:
	.BYTE 0x2
_gfx_buffer_G100:
	.BYTE 0x1F8
__base_y_G103:
	.BYTE 0x4
__lcd_y:
	.BYTE 0x1
__lcd_maxx:
	.BYTE 0x1
__seed_G104:
	.BYTE 0x4

	.CSEG
;OPTIMIZER ADDED SUBROUTINE, CALLED 3 TIMES, CODE SIZE REDUCTION:21 WORDS
SUBOPT_0x0:
	LDI  R26,LOW(6)
	MUL  R16,R26
	MOVW R30,R0
	SUBI R30,LOW(-_keypad)
	SBCI R31,HIGH(-_keypad)
	MOVW R26,R30
	MOV  R30,R19
	LDI  R31,0
	LSL  R30
	ROL  R31
	ADD  R26,R30
	ADC  R27,R31
	CALL __GETW1P
	RET

;OPTIMIZER ADDED SUBROUTINE, CALLED 4 TIMES, CODE SIZE REDUCTION:3 WORDS
SUBOPT_0x1:
	LDI  R30,LOW(8)
	LDI  R31,HIGH(8)
	CP   R30,R8
	CPC  R31,R9
	RET

;OPTIMIZER ADDED SUBROUTINE, CALLED 5 TIMES, CODE SIZE REDUCTION:9 WORDS
SUBOPT_0x2:
	LDI  R26,LOW(_order)
	LDI  R27,HIGH(_order)
	ADD  R26,R8
	ADC  R27,R9
	LD   R26,X
	RET

;OPTIMIZER ADDED SUBROUTINE, CALLED 2 TIMES, CODE SIZE REDUCTION:5 WORDS
SUBOPT_0x3:
	LDI  R30,LOW(15)
	LDI  R31,HIGH(15)
	MOVW R6,R30
	LDI  R26,LOW(2000)
	LDI  R27,HIGH(2000)
	CALL _delay_ms
	LDI  R30,LOW(10)
	LDI  R31,HIGH(10)
	MOVW R6,R30
	RET

;OPTIMIZER ADDED SUBROUTINE, CALLED 2 TIMES, CODE SIZE REDUCTION:1 WORDS
SUBOPT_0x4:
	CALL _glcd_outtextxy
	CALL _lcd_clear
	LDI  R30,LOW(0)
	ST   -Y,R30
	RET

;OPTIMIZER ADDED SUBROUTINE, CALLED 2 TIMES, CODE SIZE REDUCTION:5 WORDS
SUBOPT_0x5:
	ST   -Y,R13
	ST   -Y,R12
	LDI  R26,LOW(_what)
	LDI  R27,HIGH(_what)
	CALL _itoa
	LDI  R30,LOW(5)
	ST   -Y,R30
	LDI  R30,LOW(25)
	ST   -Y,R30
	RET

;OPTIMIZER ADDED SUBROUTINE, CALLED 2 TIMES, CODE SIZE REDUCTION:3 WORDS
SUBOPT_0x6:
	CALL _glcd_outtextxy
	LDI  R30,LOW(55)
	ST   -Y,R30
	LDI  R30,LOW(25)
	ST   -Y,R30
	LDI  R26,LOW(_what)
	LDI  R27,HIGH(_what)
	RET

;OPTIMIZER ADDED SUBROUTINE, CALLED 2 TIMES, CODE SIZE REDUCTION:1 WORDS
SUBOPT_0x7:
	CALL _lcd_puts
	MOV  R26,R12
	SUBI R26,-LOW(48)
	JMP  _lcd_putchar

;OPTIMIZER ADDED SUBROUTINE, CALLED 4 TIMES, CODE SIZE REDUCTION:21 WORDS
SUBOPT_0x8:
	LDI  R26,LOW(_gfx_addr_G100)
	LDI  R27,HIGH(_gfx_addr_G100)
	LD   R30,X+
	LD   R31,X+
	ADIW R30,1
	ST   -X,R31
	ST   -X,R30
	SBIW R30,1
	SUBI R30,LOW(-_gfx_buffer_G100)
	SBCI R31,HIGH(-_gfx_buffer_G100)
	RET

;OPTIMIZER ADDED SUBROUTINE, CALLED 3 TIMES, CODE SIZE REDUCTION:1 WORDS
SUBOPT_0x9:
	STS  100,R30
	LDS  R30,101
	RET

;OPTIMIZER ADDED SUBROUTINE, CALLED 3 TIMES, CODE SIZE REDUCTION:1 WORDS
SUBOPT_0xA:
	ADD  R30,R26
	ADC  R31,R27
	STD  Y+6,R30
	STD  Y+6+1,R31
	RET

;OPTIMIZER ADDED SUBROUTINE, CALLED 2 TIMES, CODE SIZE REDUCTION:8 WORDS
SUBOPT_0xB:
	LDD  R30,Y+12
	ST   -Y,R30
	LDD  R30,Y+7
	LDD  R31,Y+7+1
	ADIW R30,1
	STD  Y+7,R30
	STD  Y+7+1,R31
	SBIW R30,1
	ST   -Y,R31
	ST   -Y,R30
	LDI  R26,LOW(0)
	JMP  _glcd_writemem

;OPTIMIZER ADDED SUBROUTINE, CALLED 3 TIMES, CODE SIZE REDUCTION:1 WORDS
SUBOPT_0xC:
	ST   -Y,R16
	LDD  R26,Y+16
	JMP  _pcd8544_setaddr_G100

;OPTIMIZER ADDED SUBROUTINE, CALLED 4 TIMES, CODE SIZE REDUCTION:15 WORDS
SUBOPT_0xD:
	LDD  R30,Y+12
	ST   -Y,R30
	LDD  R30,Y+7
	LDD  R31,Y+7+1
	ADIW R30,1
	STD  Y+7,R30
	STD  Y+7+1,R31
	SBIW R30,1
	RET

;OPTIMIZER ADDED SUBROUTINE, CALLED 3 TIMES, CODE SIZE REDUCTION:5 WORDS
SUBOPT_0xE:
	CLR  R22
	CLR  R23
	MOVW R26,R30
	MOVW R24,R22
	JMP  _glcd_readmem

;OPTIMIZER ADDED SUBROUTINE, CALLED 3 TIMES, CODE SIZE REDUCTION:1 WORDS
SUBOPT_0xF:
	ST   -Y,R21
	LDD  R26,Y+10
	JMP  _glcd_mappixcolor1bit

;OPTIMIZER ADDED SUBROUTINE, CALLED 3 TIMES, CODE SIZE REDUCTION:3 WORDS
SUBOPT_0x10:
	ST   -Y,R16
	INC  R16
	LDD  R30,Y+16
	ST   -Y,R30
	ST   -Y,R21
	RET

;OPTIMIZER ADDED SUBROUTINE, CALLED 2 TIMES, CODE SIZE REDUCTION:5 WORDS
SUBOPT_0x11:
	MOV  R21,R30
	LDD  R30,Y+12
	ST   -Y,R30
	LDD  R26,Y+7
	LDD  R27,Y+7+1
	CLR  R24
	CLR  R25
	CALL _glcd_readmem
	MOV  R1,R30
	RET

;OPTIMIZER ADDED SUBROUTINE, CALLED 2 TIMES, CODE SIZE REDUCTION:9 WORDS
SUBOPT_0x12:
	ST   -Y,R16
	INC  R16
	LDD  R30,Y+16
	ST   -Y,R30
	LDD  R30,Y+14
	ST   -Y,R30
	LDD  R30,Y+9
	LDD  R31,Y+9+1
	ADIW R30,1
	STD  Y+9,R30
	STD  Y+9+1,R31
	SBIW R30,1
	RJMP SUBOPT_0xE

;OPTIMIZER ADDED SUBROUTINE, CALLED 2 TIMES, CODE SIZE REDUCTION:1 WORDS
SUBOPT_0x13:
	ST   -Y,R27
	ST   -Y,R26
	LD   R26,Y
	LDD  R27,Y+1
	CALL __CPW02
	RET

;OPTIMIZER ADDED SUBROUTINE, CALLED 2 TIMES, CODE SIZE REDUCTION:1 WORDS
SUBOPT_0x14:
	CALL __SAVELOCR6
	__GETW1MN _glcd_state,4
	RET

;OPTIMIZER ADDED SUBROUTINE, CALLED 3 TIMES, CODE SIZE REDUCTION:1 WORDS
SUBOPT_0x15:
	MOVW R30,R16
	__ADDWRN 16,17,1
	LPM  R0,Z
	RET

;OPTIMIZER ADDED SUBROUTINE, CALLED 4 TIMES, CODE SIZE REDUCTION:9 WORDS
SUBOPT_0x16:
	__GETW1MN _glcd_state,4
	ADIW R30,1
	LPM  R30,Z
	RET

;OPTIMIZER ADDED SUBROUTINE, CALLED 2 TIMES, CODE SIZE REDUCTION:5 WORDS
SUBOPT_0x17:
	ST   -Y,R30
	LDI  R30,LOW(0)
	ST   -Y,R30
	LDI  R30,LOW(0)
	LDI  R31,HIGH(0)
	ST   -Y,R31
	ST   -Y,R30
	LDI  R26,LOW(9)
	JMP  _glcd_block

;OPTIMIZER ADDED SUBROUTINE, CALLED 2 TIMES, CODE SIZE REDUCTION:2 WORDS
SUBOPT_0x18:
	LDD  R26,Y+1
	LDD  R27,Y+1+1
	LD   R30,X+
	STD  Y+1,R26
	STD  Y+1+1,R27
	MOV  R17,R30
	CPI  R30,0
	RET

;OPTIMIZER ADDED SUBROUTINE, CALLED 2 TIMES, CODE SIZE REDUCTION:1 WORDS
SUBOPT_0x19:
	CALL __lcd_write_data
	LDI  R26,LOW(3)
	LDI  R27,0
	JMP  _delay_ms

;OPTIMIZER ADDED SUBROUTINE, CALLED 3 TIMES, CODE SIZE REDUCTION:7 WORDS
SUBOPT_0x1A:
	LDI  R26,LOW(48)
	CALL __lcd_write_nibble_G103
	__DELAY_USW 200
	RET


	.CSEG
_delay_ms:
	adiw r26,0
	breq __delay_ms1
__delay_ms0:
	__DELAY_USW 0x7D0
	wdr
	sbiw r26,1
	brne __delay_ms0
__delay_ms1:
	ret

__LSLB12:
	TST  R30
	MOV  R0,R30
	MOV  R30,R26
	BREQ __LSLB12R
__LSLB12L:
	LSL  R30
	DEC  R0
	BRNE __LSLB12L
__LSLB12R:
	RET

__LSRB12:
	TST  R30
	MOV  R0,R30
	MOV  R30,R26
	BREQ __LSRB12R
__LSRB12L:
	LSR  R30
	DEC  R0
	BRNE __LSRB12L
__LSRB12R:
	RET

__MULW12U:
	MUL  R31,R26
	MOV  R31,R0
	MUL  R30,R27
	ADD  R31,R0
	MUL  R30,R26
	MOV  R30,R0
	ADD  R31,R1
	RET

__GETW1P:
	LD   R30,X+
	LD   R31,X
	SBIW R26,1
	RET

__EEPROMRDB:
	SBIC EECR,EEWE
	RJMP __EEPROMRDB
	PUSH R31
	IN   R31,SREG
	CLI
	OUT  EEARL,R26
	OUT  EEARH,R27
	SBI  EECR,EERE
	IN   R30,EEDR
	OUT  SREG,R31
	POP  R31
	RET

__EEPROMWRB:
	SBIS EECR,EEWE
	RJMP __EEPROMWRB1
	WDR
	RJMP __EEPROMWRB
__EEPROMWRB1:
	IN   R25,SREG
	CLI
	OUT  EEARL,R26
	OUT  EEARH,R27
	SBI  EECR,EERE
	IN   R24,EEDR
	CP   R30,R24
	BREQ __EEPROMWRB0
	OUT  EEDR,R30
	SBI  EECR,EEMWE
	SBI  EECR,EEWE
__EEPROMWRB0:
	OUT  SREG,R25
	RET

__CPW02:
	CLR  R0
	CP   R0,R26
	CPC  R0,R27
	RET

__SAVELOCR6:
	ST   -Y,R21
__SAVELOCR5:
	ST   -Y,R20
__SAVELOCR4:
	ST   -Y,R19
__SAVELOCR3:
	ST   -Y,R18
__SAVELOCR2:
	ST   -Y,R17
	ST   -Y,R16
	RET

__LOADLOCR6:
	LDD  R21,Y+5
__LOADLOCR5:
	LDD  R20,Y+4
__LOADLOCR4:
	LDD  R19,Y+3
__LOADLOCR3:
	LDD  R18,Y+2
__LOADLOCR2:
	LDD  R17,Y+1
	LD   R16,Y
	RET

;END OF CODE MARKER
__END_OF_CODE:
