
;CodeVisionAVR C Compiler V3.12 Advanced
;(C) Copyright 1998-2014 Pavel Haiduc, HP InfoTech s.r.l.
;http://www.hpinfotech.com

;Build configuration    : Debug
;Chip type              : ATmega128A
;Program type           : Application
;Clock frequency        : 8.000000 MHz
;Memory model           : Small
;Optimize for           : Size
;(s)printf features     : int, width
;(s)scanf features      : int, width
;External RAM size      : 0
;Data Stack size        : 1024 byte(s)
;Heap size              : 0 byte(s)
;Promote 'char' to 'int': Yes
;'char' is unsigned     : Yes
;8 bit enums            : Yes
;Global 'const' stored in FLASH: No
;Enhanced function parameter passing: Yes
;Enhanced core instructions: On
;Automatic register allocation for global variables: On
;Smart register allocation: On

	#define _MODEL_SMALL_

	#pragma AVRPART ADMIN PART_NAME ATmega128A
	#pragma AVRPART MEMORY PROG_FLASH 131072
	#pragma AVRPART MEMORY EEPROM 4096
	#pragma AVRPART MEMORY INT_SRAM SIZE 4096
	#pragma AVRPART MEMORY INT_SRAM START_ADDR 0x100

	#define CALL_SUPPORTED 1

	.LISTMAC
	.EQU UDRE=0x5
	.EQU RXC=0x7
	.EQU USR=0xB
	.EQU UDR=0xC
	.EQU SPSR=0xE
	.EQU SPDR=0xF
	.EQU EERE=0x0
	.EQU EEWE=0x1
	.EQU EEMWE=0x2
	.EQU EECR=0x1C
	.EQU EEDR=0x1D
	.EQU EEARL=0x1E
	.EQU EEARH=0x1F
	.EQU WDTCR=0x21
	.EQU MCUCR=0x35
	.EQU RAMPZ=0x3B
	.EQU SPL=0x3D
	.EQU SPH=0x3E
	.EQU SREG=0x3F
	.EQU XMCRA=0x6D
	.EQU XMCRB=0x6C

	.DEF R0X0=R0
	.DEF R0X1=R1
	.DEF R0X2=R2
	.DEF R0X3=R3
	.DEF R0X4=R4
	.DEF R0X5=R5
	.DEF R0X6=R6
	.DEF R0X7=R7
	.DEF R0X8=R8
	.DEF R0X9=R9
	.DEF R0XA=R10
	.DEF R0XB=R11
	.DEF R0XC=R12
	.DEF R0XD=R13
	.DEF R0XE=R14
	.DEF R0XF=R15
	.DEF R0X10=R16
	.DEF R0X11=R17
	.DEF R0X12=R18
	.DEF R0X13=R19
	.DEF R0X14=R20
	.DEF R0X15=R21
	.DEF R0X16=R22
	.DEF R0X17=R23
	.DEF R0X18=R24
	.DEF R0X19=R25
	.DEF R0X1A=R26
	.DEF R0X1B=R27
	.DEF R0X1C=R28
	.DEF R0X1D=R29
	.DEF R0X1E=R30
	.DEF R0X1F=R31

	.EQU __SRAM_START=0x0100
	.EQU __SRAM_END=0x10FF
	.EQU __DSTACK_SIZE=0x0400
	.EQU __HEAP_SIZE=0x0000
	.EQU __CLEAR_SRAM_SIZE=__SRAM_END-__SRAM_START+1

	.MACRO __CPD1N
	CPI  R30,LOW(@0)
	LDI  R26,HIGH(@0)
	CPC  R31,R26
	LDI  R26,BYTE3(@0)
	CPC  R22,R26
	LDI  R26,BYTE4(@0)
	CPC  R23,R26
	.ENDM

	.MACRO __CPD2N
	CPI  R26,LOW(@0)
	LDI  R30,HIGH(@0)
	CPC  R27,R30
	LDI  R30,BYTE3(@0)
	CPC  R24,R30
	LDI  R30,BYTE4(@0)
	CPC  R25,R30
	.ENDM

	.MACRO __CPWRR
	CP   R@0,R@2
	CPC  R@1,R@3
	.ENDM

	.MACRO __CPWRN
	CPI  R@0,LOW(@2)
	LDI  R30,HIGH(@2)
	CPC  R@1,R30
	.ENDM

	.MACRO __ADDB1MN
	SUBI R30,LOW(-@0-(@1))
	.ENDM

	.MACRO __ADDB2MN
	SUBI R26,LOW(-@0-(@1))
	.ENDM

	.MACRO __ADDW1MN
	SUBI R30,LOW(-@0-(@1))
	SBCI R31,HIGH(-@0-(@1))
	.ENDM

	.MACRO __ADDW2MN
	SUBI R26,LOW(-@0-(@1))
	SBCI R27,HIGH(-@0-(@1))
	.ENDM

	.MACRO __ADDW1FN
	SUBI R30,LOW(-2*@0-(@1))
	SBCI R31,HIGH(-2*@0-(@1))
	.ENDM

	.MACRO __ADDD1FN
	SUBI R30,LOW(-2*@0-(@1))
	SBCI R31,HIGH(-2*@0-(@1))
	SBCI R22,BYTE3(-2*@0-(@1))
	.ENDM

	.MACRO __ADDD1N
	SUBI R30,LOW(-@0)
	SBCI R31,HIGH(-@0)
	SBCI R22,BYTE3(-@0)
	SBCI R23,BYTE4(-@0)
	.ENDM

	.MACRO __ADDD2N
	SUBI R26,LOW(-@0)
	SBCI R27,HIGH(-@0)
	SBCI R24,BYTE3(-@0)
	SBCI R25,BYTE4(-@0)
	.ENDM

	.MACRO __SUBD1N
	SUBI R30,LOW(@0)
	SBCI R31,HIGH(@0)
	SBCI R22,BYTE3(@0)
	SBCI R23,BYTE4(@0)
	.ENDM

	.MACRO __SUBD2N
	SUBI R26,LOW(@0)
	SBCI R27,HIGH(@0)
	SBCI R24,BYTE3(@0)
	SBCI R25,BYTE4(@0)
	.ENDM

	.MACRO __ANDBMNN
	LDS  R30,@0+(@1)
	ANDI R30,LOW(@2)
	STS  @0+(@1),R30
	.ENDM

	.MACRO __ANDWMNN
	LDS  R30,@0+(@1)
	ANDI R30,LOW(@2)
	STS  @0+(@1),R30
	LDS  R30,@0+(@1)+1
	ANDI R30,HIGH(@2)
	STS  @0+(@1)+1,R30
	.ENDM

	.MACRO __ANDD1N
	ANDI R30,LOW(@0)
	ANDI R31,HIGH(@0)
	ANDI R22,BYTE3(@0)
	ANDI R23,BYTE4(@0)
	.ENDM

	.MACRO __ANDD2N
	ANDI R26,LOW(@0)
	ANDI R27,HIGH(@0)
	ANDI R24,BYTE3(@0)
	ANDI R25,BYTE4(@0)
	.ENDM

	.MACRO __ORBMNN
	LDS  R30,@0+(@1)
	ORI  R30,LOW(@2)
	STS  @0+(@1),R30
	.ENDM

	.MACRO __ORWMNN
	LDS  R30,@0+(@1)
	ORI  R30,LOW(@2)
	STS  @0+(@1),R30
	LDS  R30,@0+(@1)+1
	ORI  R30,HIGH(@2)
	STS  @0+(@1)+1,R30
	.ENDM

	.MACRO __ORD1N
	ORI  R30,LOW(@0)
	ORI  R31,HIGH(@0)
	ORI  R22,BYTE3(@0)
	ORI  R23,BYTE4(@0)
	.ENDM

	.MACRO __ORD2N
	ORI  R26,LOW(@0)
	ORI  R27,HIGH(@0)
	ORI  R24,BYTE3(@0)
	ORI  R25,BYTE4(@0)
	.ENDM

	.MACRO __DELAY_USB
	LDI  R24,LOW(@0)
__DELAY_USB_LOOP:
	DEC  R24
	BRNE __DELAY_USB_LOOP
	.ENDM

	.MACRO __DELAY_USW
	LDI  R24,LOW(@0)
	LDI  R25,HIGH(@0)
__DELAY_USW_LOOP:
	SBIW R24,1
	BRNE __DELAY_USW_LOOP
	.ENDM

	.MACRO __GETD1S
	LDD  R30,Y+@0
	LDD  R31,Y+@0+1
	LDD  R22,Y+@0+2
	LDD  R23,Y+@0+3
	.ENDM

	.MACRO __GETD2S
	LDD  R26,Y+@0
	LDD  R27,Y+@0+1
	LDD  R24,Y+@0+2
	LDD  R25,Y+@0+3
	.ENDM

	.MACRO __PUTD1S
	STD  Y+@0,R30
	STD  Y+@0+1,R31
	STD  Y+@0+2,R22
	STD  Y+@0+3,R23
	.ENDM

	.MACRO __PUTD2S
	STD  Y+@0,R26
	STD  Y+@0+1,R27
	STD  Y+@0+2,R24
	STD  Y+@0+3,R25
	.ENDM

	.MACRO __PUTDZ2
	STD  Z+@0,R26
	STD  Z+@0+1,R27
	STD  Z+@0+2,R24
	STD  Z+@0+3,R25
	.ENDM

	.MACRO __CLRD1S
	STD  Y+@0,R30
	STD  Y+@0+1,R30
	STD  Y+@0+2,R30
	STD  Y+@0+3,R30
	.ENDM

	.MACRO __POINTB1MN
	LDI  R30,LOW(@0+(@1))
	.ENDM

	.MACRO __POINTW1MN
	LDI  R30,LOW(@0+(@1))
	LDI  R31,HIGH(@0+(@1))
	.ENDM

	.MACRO __POINTD1M
	LDI  R30,LOW(@0)
	LDI  R31,HIGH(@0)
	LDI  R22,BYTE3(@0)
	LDI  R23,BYTE4(@0)
	.ENDM

	.MACRO __POINTW1FN
	LDI  R30,LOW(2*@0+(@1))
	LDI  R31,HIGH(2*@0+(@1))
	.ENDM

	.MACRO __POINTD1FN
	LDI  R30,LOW(2*@0+(@1))
	LDI  R31,HIGH(2*@0+(@1))
	LDI  R22,BYTE3(2*@0+(@1))
	LDI  R23,BYTE4(2*@0+(@1))
	.ENDM

	.MACRO __POINTB2MN
	LDI  R26,LOW(@0+(@1))
	.ENDM

	.MACRO __POINTW2MN
	LDI  R26,LOW(@0+(@1))
	LDI  R27,HIGH(@0+(@1))
	.ENDM

	.MACRO __POINTW2FN
	LDI  R26,LOW(2*@0+(@1))
	LDI  R27,HIGH(2*@0+(@1))
	.ENDM

	.MACRO __POINTD2FN
	LDI  R26,LOW(2*@0+(@1))
	LDI  R27,HIGH(2*@0+(@1))
	LDI  R24,BYTE3(2*@0+(@1))
	LDI  R25,BYTE4(2*@0+(@1))
	.ENDM

	.MACRO __POINTBRM
	LDI  R@0,LOW(@1)
	.ENDM

	.MACRO __POINTWRM
	LDI  R@0,LOW(@2)
	LDI  R@1,HIGH(@2)
	.ENDM

	.MACRO __POINTBRMN
	LDI  R@0,LOW(@1+(@2))
	.ENDM

	.MACRO __POINTWRMN
	LDI  R@0,LOW(@2+(@3))
	LDI  R@1,HIGH(@2+(@3))
	.ENDM

	.MACRO __POINTWRFN
	LDI  R@0,LOW(@2*2+(@3))
	LDI  R@1,HIGH(@2*2+(@3))
	.ENDM

	.MACRO __GETD1N
	LDI  R30,LOW(@0)
	LDI  R31,HIGH(@0)
	LDI  R22,BYTE3(@0)
	LDI  R23,BYTE4(@0)
	.ENDM

	.MACRO __GETD2N
	LDI  R26,LOW(@0)
	LDI  R27,HIGH(@0)
	LDI  R24,BYTE3(@0)
	LDI  R25,BYTE4(@0)
	.ENDM

	.MACRO __GETB1MN
	LDS  R30,@0+(@1)
	.ENDM

	.MACRO __GETB1HMN
	LDS  R31,@0+(@1)
	.ENDM

	.MACRO __GETW1MN
	LDS  R30,@0+(@1)
	LDS  R31,@0+(@1)+1
	.ENDM

	.MACRO __GETD1MN
	LDS  R30,@0+(@1)
	LDS  R31,@0+(@1)+1
	LDS  R22,@0+(@1)+2
	LDS  R23,@0+(@1)+3
	.ENDM

	.MACRO __GETBRMN
	LDS  R@0,@1+(@2)
	.ENDM

	.MACRO __GETWRMN
	LDS  R@0,@2+(@3)
	LDS  R@1,@2+(@3)+1
	.ENDM

	.MACRO __GETWRZ
	LDD  R@0,Z+@2
	LDD  R@1,Z+@2+1
	.ENDM

	.MACRO __GETD2Z
	LDD  R26,Z+@0
	LDD  R27,Z+@0+1
	LDD  R24,Z+@0+2
	LDD  R25,Z+@0+3
	.ENDM

	.MACRO __GETB2MN
	LDS  R26,@0+(@1)
	.ENDM

	.MACRO __GETW2MN
	LDS  R26,@0+(@1)
	LDS  R27,@0+(@1)+1
	.ENDM

	.MACRO __GETD2MN
	LDS  R26,@0+(@1)
	LDS  R27,@0+(@1)+1
	LDS  R24,@0+(@1)+2
	LDS  R25,@0+(@1)+3
	.ENDM

	.MACRO __PUTB1MN
	STS  @0+(@1),R30
	.ENDM

	.MACRO __PUTW1MN
	STS  @0+(@1),R30
	STS  @0+(@1)+1,R31
	.ENDM

	.MACRO __PUTD1MN
	STS  @0+(@1),R30
	STS  @0+(@1)+1,R31
	STS  @0+(@1)+2,R22
	STS  @0+(@1)+3,R23
	.ENDM

	.MACRO __PUTB1EN
	LDI  R26,LOW(@0+(@1))
	LDI  R27,HIGH(@0+(@1))
	CALL __EEPROMWRB
	.ENDM

	.MACRO __PUTW1EN
	LDI  R26,LOW(@0+(@1))
	LDI  R27,HIGH(@0+(@1))
	CALL __EEPROMWRW
	.ENDM

	.MACRO __PUTD1EN
	LDI  R26,LOW(@0+(@1))
	LDI  R27,HIGH(@0+(@1))
	CALL __EEPROMWRD
	.ENDM

	.MACRO __PUTBR0MN
	STS  @0+(@1),R0
	.ENDM

	.MACRO __PUTBMRN
	STS  @0+(@1),R@2
	.ENDM

	.MACRO __PUTWMRN
	STS  @0+(@1),R@2
	STS  @0+(@1)+1,R@3
	.ENDM

	.MACRO __PUTBZR
	STD  Z+@1,R@0
	.ENDM

	.MACRO __PUTWZR
	STD  Z+@2,R@0
	STD  Z+@2+1,R@1
	.ENDM

	.MACRO __GETW1R
	MOV  R30,R@0
	MOV  R31,R@1
	.ENDM

	.MACRO __GETW2R
	MOV  R26,R@0
	MOV  R27,R@1
	.ENDM

	.MACRO __GETWRN
	LDI  R@0,LOW(@2)
	LDI  R@1,HIGH(@2)
	.ENDM

	.MACRO __PUTW1R
	MOV  R@0,R30
	MOV  R@1,R31
	.ENDM

	.MACRO __PUTW2R
	MOV  R@0,R26
	MOV  R@1,R27
	.ENDM

	.MACRO __ADDWRN
	SUBI R@0,LOW(-@2)
	SBCI R@1,HIGH(-@2)
	.ENDM

	.MACRO __ADDWRR
	ADD  R@0,R@2
	ADC  R@1,R@3
	.ENDM

	.MACRO __SUBWRN
	SUBI R@0,LOW(@2)
	SBCI R@1,HIGH(@2)
	.ENDM

	.MACRO __SUBWRR
	SUB  R@0,R@2
	SBC  R@1,R@3
	.ENDM

	.MACRO __ANDWRN
	ANDI R@0,LOW(@2)
	ANDI R@1,HIGH(@2)
	.ENDM

	.MACRO __ANDWRR
	AND  R@0,R@2
	AND  R@1,R@3
	.ENDM

	.MACRO __ORWRN
	ORI  R@0,LOW(@2)
	ORI  R@1,HIGH(@2)
	.ENDM

	.MACRO __ORWRR
	OR   R@0,R@2
	OR   R@1,R@3
	.ENDM

	.MACRO __EORWRR
	EOR  R@0,R@2
	EOR  R@1,R@3
	.ENDM

	.MACRO __GETWRS
	LDD  R@0,Y+@2
	LDD  R@1,Y+@2+1
	.ENDM

	.MACRO __PUTBSR
	STD  Y+@1,R@0
	.ENDM

	.MACRO __PUTWSR
	STD  Y+@2,R@0
	STD  Y+@2+1,R@1
	.ENDM

	.MACRO __MOVEWRR
	MOV  R@0,R@2
	MOV  R@1,R@3
	.ENDM

	.MACRO __INWR
	IN   R@0,@2
	IN   R@1,@2+1
	.ENDM

	.MACRO __OUTWR
	OUT  @2+1,R@1
	OUT  @2,R@0
	.ENDM

	.MACRO __CALL1MN
	LDS  R30,@0+(@1)
	LDS  R31,@0+(@1)+1
	ICALL
	.ENDM

	.MACRO __CALL1FN
	LDI  R30,LOW(2*@0+(@1))
	LDI  R31,HIGH(2*@0+(@1))
	CALL __GETW1PF
	ICALL
	.ENDM

	.MACRO __CALL2EN
	PUSH R26
	PUSH R27
	LDI  R26,LOW(@0+(@1))
	LDI  R27,HIGH(@0+(@1))
	CALL __EEPROMRDW
	POP  R27
	POP  R26
	ICALL
	.ENDM

	.MACRO __CALL2EX
	SUBI R26,LOW(-@0)
	SBCI R27,HIGH(-@0)
	CALL __EEPROMRDD
	ICALL
	.ENDM

	.MACRO __GETW1STACK
	IN   R30,SPL
	IN   R31,SPH
	ADIW R30,@0+1
	LD   R0,Z+
	LD   R31,Z
	MOV  R30,R0
	.ENDM

	.MACRO __GETD1STACK
	IN   R30,SPL
	IN   R31,SPH
	ADIW R30,@0+1
	LD   R0,Z+
	LD   R1,Z+
	LD   R22,Z
	MOVW R30,R0
	.ENDM

	.MACRO __NBST
	BST  R@0,@1
	IN   R30,SREG
	LDI  R31,0x40
	EOR  R30,R31
	OUT  SREG,R30
	.ENDM


	.MACRO __PUTB1SN
	LDD  R26,Y+@0
	LDD  R27,Y+@0+1
	SUBI R26,LOW(-@1)
	SBCI R27,HIGH(-@1)
	ST   X,R30
	.ENDM

	.MACRO __PUTW1SN
	LDD  R26,Y+@0
	LDD  R27,Y+@0+1
	SUBI R26,LOW(-@1)
	SBCI R27,HIGH(-@1)
	ST   X+,R30
	ST   X,R31
	.ENDM

	.MACRO __PUTD1SN
	LDD  R26,Y+@0
	LDD  R27,Y+@0+1
	SUBI R26,LOW(-@1)
	SBCI R27,HIGH(-@1)
	CALL __PUTDP1
	.ENDM

	.MACRO __PUTB1SNS
	LDD  R26,Y+@0
	LDD  R27,Y+@0+1
	ADIW R26,@1
	ST   X,R30
	.ENDM

	.MACRO __PUTW1SNS
	LDD  R26,Y+@0
	LDD  R27,Y+@0+1
	ADIW R26,@1
	ST   X+,R30
	ST   X,R31
	.ENDM

	.MACRO __PUTD1SNS
	LDD  R26,Y+@0
	LDD  R27,Y+@0+1
	ADIW R26,@1
	CALL __PUTDP1
	.ENDM

	.MACRO __PUTB1PMN
	LDS  R26,@0
	LDS  R27,@0+1
	SUBI R26,LOW(-@1)
	SBCI R27,HIGH(-@1)
	ST   X,R30
	.ENDM

	.MACRO __PUTW1PMN
	LDS  R26,@0
	LDS  R27,@0+1
	SUBI R26,LOW(-@1)
	SBCI R27,HIGH(-@1)
	ST   X+,R30
	ST   X,R31
	.ENDM

	.MACRO __PUTD1PMN
	LDS  R26,@0
	LDS  R27,@0+1
	SUBI R26,LOW(-@1)
	SBCI R27,HIGH(-@1)
	CALL __PUTDP1
	.ENDM

	.MACRO __PUTB1PMNS
	LDS  R26,@0
	LDS  R27,@0+1
	ADIW R26,@1
	ST   X,R30
	.ENDM

	.MACRO __PUTW1PMNS
	LDS  R26,@0
	LDS  R27,@0+1
	ADIW R26,@1
	ST   X+,R30
	ST   X,R31
	.ENDM

	.MACRO __PUTD1PMNS
	LDS  R26,@0
	LDS  R27,@0+1
	ADIW R26,@1
	CALL __PUTDP1
	.ENDM

	.MACRO __PUTB1RN
	MOVW R26,R@0
	SUBI R26,LOW(-@1)
	SBCI R27,HIGH(-@1)
	ST   X,R30
	.ENDM

	.MACRO __PUTW1RN
	MOVW R26,R@0
	SUBI R26,LOW(-@1)
	SBCI R27,HIGH(-@1)
	ST   X+,R30
	ST   X,R31
	.ENDM

	.MACRO __PUTD1RN
	MOVW R26,R@0
	SUBI R26,LOW(-@1)
	SBCI R27,HIGH(-@1)
	CALL __PUTDP1
	.ENDM

	.MACRO __PUTB1RNS
	MOVW R26,R@0
	ADIW R26,@1
	ST   X,R30
	.ENDM

	.MACRO __PUTW1RNS
	MOVW R26,R@0
	ADIW R26,@1
	ST   X+,R30
	ST   X,R31
	.ENDM

	.MACRO __PUTD1RNS
	MOVW R26,R@0
	ADIW R26,@1
	CALL __PUTDP1
	.ENDM

	.MACRO __PUTB1RON
	MOV  R26,R@0
	MOV  R27,R@1
	SUBI R26,LOW(-@2)
	SBCI R27,HIGH(-@2)
	ST   X,R30
	.ENDM

	.MACRO __PUTW1RON
	MOV  R26,R@0
	MOV  R27,R@1
	SUBI R26,LOW(-@2)
	SBCI R27,HIGH(-@2)
	ST   X+,R30
	ST   X,R31
	.ENDM

	.MACRO __PUTD1RON
	MOV  R26,R@0
	MOV  R27,R@1
	SUBI R26,LOW(-@2)
	SBCI R27,HIGH(-@2)
	CALL __PUTDP1
	.ENDM

	.MACRO __PUTB1RONS
	MOV  R26,R@0
	MOV  R27,R@1
	ADIW R26,@2
	ST   X,R30
	.ENDM

	.MACRO __PUTW1RONS
	MOV  R26,R@0
	MOV  R27,R@1
	ADIW R26,@2
	ST   X+,R30
	ST   X,R31
	.ENDM

	.MACRO __PUTD1RONS
	MOV  R26,R@0
	MOV  R27,R@1
	ADIW R26,@2
	CALL __PUTDP1
	.ENDM


	.MACRO __GETB1SX
	MOVW R30,R28
	SUBI R30,LOW(-@0)
	SBCI R31,HIGH(-@0)
	LD   R30,Z
	.ENDM

	.MACRO __GETB1HSX
	MOVW R30,R28
	SUBI R30,LOW(-@0)
	SBCI R31,HIGH(-@0)
	LD   R31,Z
	.ENDM

	.MACRO __GETW1SX
	MOVW R30,R28
	SUBI R30,LOW(-@0)
	SBCI R31,HIGH(-@0)
	LD   R0,Z+
	LD   R31,Z
	MOV  R30,R0
	.ENDM

	.MACRO __GETD1SX
	MOVW R30,R28
	SUBI R30,LOW(-@0)
	SBCI R31,HIGH(-@0)
	LD   R0,Z+
	LD   R1,Z+
	LD   R22,Z+
	LD   R23,Z
	MOVW R30,R0
	.ENDM

	.MACRO __GETB2SX
	MOVW R26,R28
	SUBI R26,LOW(-@0)
	SBCI R27,HIGH(-@0)
	LD   R26,X
	.ENDM

	.MACRO __GETW2SX
	MOVW R26,R28
	SUBI R26,LOW(-@0)
	SBCI R27,HIGH(-@0)
	LD   R0,X+
	LD   R27,X
	MOV  R26,R0
	.ENDM

	.MACRO __GETD2SX
	MOVW R26,R28
	SUBI R26,LOW(-@0)
	SBCI R27,HIGH(-@0)
	LD   R0,X+
	LD   R1,X+
	LD   R24,X+
	LD   R25,X
	MOVW R26,R0
	.ENDM

	.MACRO __GETBRSX
	MOVW R30,R28
	SUBI R30,LOW(-@1)
	SBCI R31,HIGH(-@1)
	LD   R@0,Z
	.ENDM

	.MACRO __GETWRSX
	MOVW R30,R28
	SUBI R30,LOW(-@2)
	SBCI R31,HIGH(-@2)
	LD   R@0,Z+
	LD   R@1,Z
	.ENDM

	.MACRO __GETBRSX2
	MOVW R26,R28
	SUBI R26,LOW(-@1)
	SBCI R27,HIGH(-@1)
	LD   R@0,X
	.ENDM

	.MACRO __GETWRSX2
	MOVW R26,R28
	SUBI R26,LOW(-@2)
	SBCI R27,HIGH(-@2)
	LD   R@0,X+
	LD   R@1,X
	.ENDM

	.MACRO __LSLW8SX
	MOVW R30,R28
	SUBI R30,LOW(-@0)
	SBCI R31,HIGH(-@0)
	LD   R31,Z
	CLR  R30
	.ENDM

	.MACRO __PUTB1SX
	MOVW R26,R28
	SUBI R26,LOW(-@0)
	SBCI R27,HIGH(-@0)
	ST   X,R30
	.ENDM

	.MACRO __PUTW1SX
	MOVW R26,R28
	SUBI R26,LOW(-@0)
	SBCI R27,HIGH(-@0)
	ST   X+,R30
	ST   X,R31
	.ENDM

	.MACRO __PUTD1SX
	MOVW R26,R28
	SUBI R26,LOW(-@0)
	SBCI R27,HIGH(-@0)
	ST   X+,R30
	ST   X+,R31
	ST   X+,R22
	ST   X,R23
	.ENDM

	.MACRO __CLRW1SX
	MOVW R26,R28
	SUBI R26,LOW(-@0)
	SBCI R27,HIGH(-@0)
	ST   X+,R30
	ST   X,R30
	.ENDM

	.MACRO __CLRD1SX
	MOVW R26,R28
	SUBI R26,LOW(-@0)
	SBCI R27,HIGH(-@0)
	ST   X+,R30
	ST   X+,R30
	ST   X+,R30
	ST   X,R30
	.ENDM

	.MACRO __PUTB2SX
	MOVW R30,R28
	SUBI R30,LOW(-@0)
	SBCI R31,HIGH(-@0)
	ST   Z,R26
	.ENDM

	.MACRO __PUTW2SX
	MOVW R30,R28
	SUBI R30,LOW(-@0)
	SBCI R31,HIGH(-@0)
	ST   Z+,R26
	ST   Z,R27
	.ENDM

	.MACRO __PUTD2SX
	MOVW R30,R28
	SUBI R30,LOW(-@0)
	SBCI R31,HIGH(-@0)
	ST   Z+,R26
	ST   Z+,R27
	ST   Z+,R24
	ST   Z,R25
	.ENDM

	.MACRO __PUTBSRX
	MOVW R30,R28
	SUBI R30,LOW(-@1)
	SBCI R31,HIGH(-@1)
	ST   Z,R@0
	.ENDM

	.MACRO __PUTWSRX
	MOVW R30,R28
	SUBI R30,LOW(-@2)
	SBCI R31,HIGH(-@2)
	ST   Z+,R@0
	ST   Z,R@1
	.ENDM

	.MACRO __PUTB1SNX
	MOVW R26,R28
	SUBI R26,LOW(-@0)
	SBCI R27,HIGH(-@0)
	LD   R0,X+
	LD   R27,X
	MOV  R26,R0
	SUBI R26,LOW(-@1)
	SBCI R27,HIGH(-@1)
	ST   X,R30
	.ENDM

	.MACRO __PUTW1SNX
	MOVW R26,R28
	SUBI R26,LOW(-@0)
	SBCI R27,HIGH(-@0)
	LD   R0,X+
	LD   R27,X
	MOV  R26,R0
	SUBI R26,LOW(-@1)
	SBCI R27,HIGH(-@1)
	ST   X+,R30
	ST   X,R31
	.ENDM

	.MACRO __PUTD1SNX
	MOVW R26,R28
	SUBI R26,LOW(-@0)
	SBCI R27,HIGH(-@0)
	LD   R0,X+
	LD   R27,X
	MOV  R26,R0
	SUBI R26,LOW(-@1)
	SBCI R27,HIGH(-@1)
	ST   X+,R30
	ST   X+,R31
	ST   X+,R22
	ST   X,R23
	.ENDM

	.MACRO __MULBRR
	MULS R@0,R@1
	MOVW R30,R0
	.ENDM

	.MACRO __MULBRRU
	MUL  R@0,R@1
	MOVW R30,R0
	.ENDM

	.MACRO __MULBRR0
	MULS R@0,R@1
	.ENDM

	.MACRO __MULBRRU0
	MUL  R@0,R@1
	.ENDM

	.MACRO __MULBNWRU
	LDI  R26,@2
	MUL  R26,R@0
	MOVW R30,R0
	MUL  R26,R@1
	ADD  R31,R0
	.ENDM

;NAME DEFINITIONS FOR GLOBAL VARIABLES ALLOCATED TO REGISTERS
	.DEF _checksum=R4
	.DEF _checksum_msb=R5
	.DEF _buffer_index=R6
	.DEF _buffer_index_msb=R7
	.DEF _number=R8
	.DEF _number_msb=R9
	.DEF _x=R11
	.DEF _nhietdo=R10
	.DEF _doam=R13
	.DEF _nhietdo_naodo=R12

	.CSEG
	.ORG 0x00

;START OF CODE MARKER
__START_OF_CODE:

;INTERRUPT VECTORS
	JMP  __RESET
	JMP  0x00
	JMP  0x00
	JMP  0x00
	JMP  0x00
	JMP  0x00
	JMP  0x00
	JMP  0x00
	JMP  0x00
	JMP  0x00
	JMP  0x00
	JMP  0x00
	JMP  0x00
	JMP  0x00
	JMP  _timer1_ovf_isr
	JMP  0x00
	JMP  0x00
	JMP  0x00
	JMP  0x00
	JMP  0x00
	JMP  0x00
	JMP  0x00
	JMP  0x00
	JMP  0x00
	JMP  0x00
	JMP  0x00
	JMP  0x00
	JMP  0x00
	JMP  0x00
	JMP  0x00
	JMP  0x00
	JMP  0x00
	JMP  0x00
	JMP  0x00
	JMP  0x00

_font5x7:
	.DB  0x5,0x7,0x20,0x60,0x0,0x0,0x0,0x0
	.DB  0x0,0x0,0x0,0x5F,0x0,0x0,0x0,0x7
	.DB  0x0,0x7,0x0,0x14,0x7F,0x14,0x7F,0x14
	.DB  0x24,0x2A,0x7F,0x2A,0x12,0x23,0x13,0x8
	.DB  0x64,0x62,0x36,0x49,0x55,0x22,0x50,0x0
	.DB  0x5,0x3,0x0,0x0,0x0,0x1C,0x22,0x41
	.DB  0x0,0x0,0x41,0x22,0x1C,0x0,0x8,0x2A
	.DB  0x1C,0x2A,0x8,0x8,0x8,0x3E,0x8,0x8
	.DB  0x0,0x50,0x30,0x0,0x0,0x8,0x8,0x8
	.DB  0x8,0x8,0x0,0x30,0x30,0x0,0x0,0x20
	.DB  0x10,0x8,0x4,0x2,0x3E,0x51,0x49,0x45
	.DB  0x3E,0x0,0x42,0x7F,0x40,0x0,0x42,0x61
	.DB  0x51,0x49,0x46,0x21,0x41,0x45,0x4B,0x31
	.DB  0x18,0x14,0x12,0x7F,0x10,0x27,0x45,0x45
	.DB  0x45,0x39,0x3C,0x4A,0x49,0x49,0x30,0x1
	.DB  0x71,0x9,0x5,0x3,0x36,0x49,0x49,0x49
	.DB  0x36,0x6,0x49,0x49,0x29,0x1E,0x0,0x36
	.DB  0x36,0x0,0x0,0x0,0x56,0x36,0x0,0x0
	.DB  0x0,0x8,0x14,0x22,0x41,0x14,0x14,0x14
	.DB  0x14,0x14,0x41,0x22,0x14,0x8,0x0,0x2
	.DB  0x1,0x51,0x9,0x6,0x32,0x49,0x79,0x41
	.DB  0x3E,0x7E,0x11,0x11,0x11,0x7E,0x7F,0x49
	.DB  0x49,0x49,0x36,0x3E,0x41,0x41,0x41,0x22
	.DB  0x7F,0x41,0x41,0x22,0x1C,0x7F,0x49,0x49
	.DB  0x49,0x41,0x7F,0x9,0x9,0x1,0x1,0x3E
	.DB  0x41,0x41,0x51,0x32,0x7F,0x8,0x8,0x8
	.DB  0x7F,0x0,0x41,0x7F,0x41,0x0,0x20,0x40
	.DB  0x41,0x3F,0x1,0x7F,0x8,0x14,0x22,0x41
	.DB  0x7F,0x40,0x40,0x40,0x40,0x7F,0x2,0x4
	.DB  0x2,0x7F,0x7F,0x4,0x8,0x10,0x7F,0x3E
	.DB  0x41,0x41,0x41,0x3E,0x7F,0x9,0x9,0x9
	.DB  0x6,0x3E,0x41,0x51,0x21,0x5E,0x7F,0x9
	.DB  0x19,0x29,0x46,0x46,0x49,0x49,0x49,0x31
	.DB  0x1,0x1,0x7F,0x1,0x1,0x3F,0x40,0x40
	.DB  0x40,0x3F,0x1F,0x20,0x40,0x20,0x1F,0x7F
	.DB  0x20,0x18,0x20,0x7F,0x63,0x14,0x8,0x14
	.DB  0x63,0x3,0x4,0x78,0x4,0x3,0x61,0x51
	.DB  0x49,0x45,0x43,0x0,0x0,0x7F,0x41,0x41
	.DB  0x2,0x4,0x8,0x10,0x20,0x41,0x41,0x7F
	.DB  0x0,0x0,0x4,0x2,0x1,0x2,0x4,0x40
	.DB  0x40,0x40,0x40,0x40,0x0,0x1,0x2,0x4
	.DB  0x0,0x20,0x54,0x54,0x54,0x78,0x7F,0x48
	.DB  0x44,0x44,0x38,0x38,0x44,0x44,0x44,0x20
	.DB  0x38,0x44,0x44,0x48,0x7F,0x38,0x54,0x54
	.DB  0x54,0x18,0x8,0x7E,0x9,0x1,0x2,0x8
	.DB  0x14,0x54,0x54,0x3C,0x7F,0x8,0x4,0x4
	.DB  0x78,0x0,0x44,0x7D,0x40,0x0,0x20,0x40
	.DB  0x44,0x3D,0x0,0x0,0x7F,0x10,0x28,0x44
	.DB  0x0,0x41,0x7F,0x40,0x0,0x7C,0x4,0x18
	.DB  0x4,0x78,0x7C,0x8,0x4,0x4,0x78,0x38
	.DB  0x44,0x44,0x44,0x38,0x7C,0x14,0x14,0x14
	.DB  0x8,0x8,0x14,0x14,0x18,0x7C,0x7C,0x8
	.DB  0x4,0x4,0x8,0x48,0x54,0x54,0x54,0x20
	.DB  0x4,0x3F,0x44,0x40,0x20,0x3C,0x40,0x40
	.DB  0x20,0x7C,0x1C,0x20,0x40,0x20,0x1C,0x3C
	.DB  0x40,0x30,0x40,0x3C,0x44,0x28,0x10,0x28
	.DB  0x44,0xC,0x50,0x50,0x50,0x3C,0x44,0x64
	.DB  0x54,0x4C,0x44,0x0,0x8,0x36,0x41,0x0
	.DB  0x0,0x0,0x7F,0x0,0x0,0x0,0x41,0x36
	.DB  0x8,0x0,0x2,0x1,0x2,0x4,0x2,0x7F
	.DB  0x41,0x41,0x41,0x7F
__glcd_mask:
	.DB  0x0,0x1,0x3,0x7,0xF,0x1F,0x3F,0x7F
	.DB  0xFF
_tbl10_G104:
	.DB  0x10,0x27,0xE8,0x3,0x64,0x0,0xA,0x0
	.DB  0x1,0x0
_tbl16_G104:
	.DB  0x0,0x10,0x0,0x1,0x10,0x0,0x1,0x0

;GLOBAL REGISTER VARIABLES INITIALIZATION
__REG_VARS:
	.DB  0x0,0x0,0x0,0x0
	.DB  0x0,0x0,0x0,0x0
	.DB  0xE7,0x0

_0x3:
	.DB  0x0,0x0,0x0,0x0,0x0,0x0,0x0,0x0
	.DB  0x0,0x0
_0x26:
	.DB  0x1,0x0,0x2,0x0,0x3,0x0,0x4,0x0
	.DB  0x5,0x0,0x6,0x0,0x7,0x0,0x8,0x0
	.DB  0x9
_0x0:
	.DB  0x25,0x64,0x0,0x4E,0x48,0x41,0x50,0x20
	.DB  0x54,0x45,0x4D,0x50,0x3A,0x0,0x48,0x55
	.DB  0x4D,0x49,0x3A,0x0,0x4E,0x48,0x41,0x50
	.DB  0x20,0x54,0x45,0x4D,0x50,0x3A,0x20,0x42
	.DB  0x54,0x31,0x0,0x48,0x49,0x45,0x4E,0x20
	.DB  0x54,0x48,0x49,0x3A,0x20,0x42,0x54,0x32
	.DB  0x0
_0x2060003:
	.DB  0x80,0xC0
_0x20A0060:
	.DB  0x1
_0x20A0000:
	.DB  0x2D,0x4E,0x41,0x4E,0x0,0x49,0x4E,0x46
	.DB  0x0

__GLOBAL_INI_TBL:
	.DW  0x0A
	.DW  0x04
	.DW  __REG_VARS*2

	.DW  0x11
	.DW  _keypad
	.DW  _0x26*2

	.DW  0x0B
	.DW  _0x36
	.DW  _0x0*2+3

	.DW  0x0B
	.DW  _0x3B
	.DW  _0x0*2+3

	.DW  0x06
	.DW  _0x4E
	.DW  _0x0*2+8

	.DW  0x06
	.DW  _0x4E+6
	.DW  _0x0*2+14

	.DW  0x06
	.DW  _0x4F
	.DW  _0x0*2+8

	.DW  0x0F
	.DW  _0x60
	.DW  _0x0*2+20

	.DW  0x0E
	.DW  _0x60+15
	.DW  _0x0*2+35

	.DW  0x02
	.DW  __base_y_G103
	.DW  _0x2060003*2

	.DW  0x01
	.DW  __seed_G105
	.DW  _0x20A0060*2

_0xFFFFFFFF:
	.DW  0

#define __GLOBAL_INI_TBL_PRESENT 1

__RESET:
	CLI
	CLR  R30
	OUT  EECR,R30

;INTERRUPT VECTORS ARE PLACED
;AT THE START OF FLASH
	LDI  R31,1
	OUT  MCUCR,R31
	OUT  MCUCR,R30
	STS  XMCRB,R30

;CLEAR R2-R14
	LDI  R24,(14-2)+1
	LDI  R26,2
	CLR  R27
__CLEAR_REG:
	ST   X+,R30
	DEC  R24
	BRNE __CLEAR_REG

;CLEAR SRAM
	LDI  R24,LOW(__CLEAR_SRAM_SIZE)
	LDI  R25,HIGH(__CLEAR_SRAM_SIZE)
	LDI  R26,LOW(__SRAM_START)
	LDI  R27,HIGH(__SRAM_START)
__CLEAR_SRAM:
	ST   X+,R30
	SBIW R24,1
	BRNE __CLEAR_SRAM

;GLOBAL VARIABLES INITIALIZATION
	LDI  R30,LOW(__GLOBAL_INI_TBL*2)
	LDI  R31,HIGH(__GLOBAL_INI_TBL*2)
__GLOBAL_INI_NEXT:
	LPM  R24,Z+
	LPM  R25,Z+
	SBIW R24,0
	BREQ __GLOBAL_INI_END
	LPM  R26,Z+
	LPM  R27,Z+
	LPM  R0,Z+
	LPM  R1,Z+
	MOVW R22,R30
	MOVW R30,R0
__GLOBAL_INI_LOOP:
	LPM  R0,Z+
	ST   X+,R0
	SBIW R24,1
	BRNE __GLOBAL_INI_LOOP
	MOVW R30,R22
	RJMP __GLOBAL_INI_NEXT
__GLOBAL_INI_END:

	OUT  RAMPZ,R24

;HARDWARE STACK POINTER INITIALIZATION
	LDI  R30,LOW(__SRAM_END-__HEAP_SIZE)
	OUT  SPL,R30
	LDI  R30,HIGH(__SRAM_END-__HEAP_SIZE)
	OUT  SPH,R30

;DATA STACK POINTER INITIALIZATION
	LDI  R28,LOW(__SRAM_START+__DSTACK_SIZE)
	LDI  R29,HIGH(__SRAM_START+__DSTACK_SIZE)

	JMP  _main

	.ESEG
	.ORG 0

	.DSEG
	.ORG 0x500

	.CSEG
;/*
; * bai8.c
; *
; * Created: 11/11/2022 9:25:24 AM
; * Author: Who
; */
;
;#include <io.h>
	#ifndef __SLEEP_DEFINED__
	#define __SLEEP_DEFINED__
	.EQU __se_bit=0x20
	.EQU __sm_mask=0x1C
	.EQU __sm_powerdown=0x10
	.EQU __sm_powersave=0x18
	.EQU __sm_standby=0x14
	.EQU __sm_ext_standby=0x1C
	.EQU __sm_adc_noise_red=0x08
	.SET power_ctrl_reg=mcucr
	#endif
;#include <delay.h>
;#include <glcd.h>
;#include <font5x7.h>
;#include <dht11.c>
;#include <io.h>
;#include <alcd.h>
;#include <delay.h>
;
;#define PIN_DHT PINB.7
;#define PORT_DHT PORTB.7
;#define DDR_DHT DDRB.7
;
;int checksum=0;
;
;char dht11(unsigned char *nhietdo, unsigned char *doam) {
; 0000 000C char dht11(unsigned char *nhietdo, unsigned char *doam) {

	.CSEG
_dht11:
; .FSTART _dht11
;    int i, j;
;    int buffer[5] = {0,0,0,0,0};
;    // buoc 1
;    DDR_DHT = 1;
	ST   -Y,R27
	ST   -Y,R26
	SBIW R28,10
	LDI  R24,10
	LDI  R26,LOW(0)
	LDI  R27,HIGH(0)
	LDI  R30,LOW(_0x3*2)
	LDI  R31,HIGH(_0x3*2)
	CALL __INITLOCB
	CALL __SAVELOCR4
;	*nhietdo -> Y+16
;	*doam -> Y+14
;	i -> R16,R17
;	j -> R18,R19
;	buffer -> Y+4
	SBI  0x17,7
;    PORT_DHT = 1;
	SBI  0x18,7
;    delay_us(60);
	__DELAY_USB 160
;    // buoc 2
;    PORT_DHT = 0;
	CBI  0x18,7
;    delay_ms(25);
	LDI  R26,LOW(25)
	LDI  R27,0
	CALL _delay_ms
;    // buoc 3
;    DDR_DHT = 0;
	CBI  0x17,7
;    PORT_DHT = 1;
	SBI  0x18,7
;
;    // check pin
;    delay_us(60);
	__DELAY_USB 160
;    if (PIN_DHT) return 0;
	SBIS 0x16,7
	RJMP _0xE
	LDI  R30,LOW(0)
	RJMP _0x214000D
;    else while (!(PIN_DHT));
_0xE:
_0x10:
	SBIS 0x16,7
	RJMP _0x10
;    delay_us(60);
	__DELAY_USB 160
;    if (!PIN_DHT) return 0;
	SBIC 0x16,7
	RJMP _0x13
	LDI  R30,LOW(0)
	RJMP _0x214000D
;    else while ((PIN_DHT));
_0x13:
_0x15:
	SBIC 0x16,7
	RJMP _0x15
;
;
;    for (i = 0;i < 5;++ i) {
	__GETWRN 16,17,0
_0x19:
	__CPWRN 16,17,5
	BRGE _0x1A
;        for (j = 0;j < 8;++ j) {
	__GETWRN 18,19,0
_0x1C:
	__CPWRN 18,19,8
	BRGE _0x1D
;            while (!(PIN_DHT));
_0x1E:
	SBIS 0x16,7
	RJMP _0x1E
;            delay_us(50);
	__DELAY_USB 133
;            if (PIN_DHT) {
	SBIS 0x16,7
	RJMP _0x21
;                buffer[i] |= (1<<(7-j));
	MOVW R30,R16
	MOVW R26,R28
	ADIW R26,4
	LSL  R30
	ROL  R31
	ADD  R30,R26
	ADC  R31,R27
	MOVW R24,R30
	LD   R22,Z
	LDD  R23,Z+1
	LDI  R30,LOW(7)
	LDI  R31,HIGH(7)
	SUB  R30,R18
	SBC  R31,R19
	LDI  R26,LOW(1)
	LDI  R27,HIGH(1)
	CALL __LSLW12
	OR   R30,R22
	OR   R31,R23
	MOVW R26,R24
	ST   X+,R30
	ST   X,R31
;                while ((PIN_DHT));
_0x22:
	SBIC 0x16,7
	RJMP _0x22
;            }
;        }
_0x21:
	__ADDWRN 18,19,1
	RJMP _0x1C
_0x1D:
;    }
	__ADDWRN 16,17,1
	RJMP _0x19
_0x1A:
;    checksum = buffer[0] + buffer[1] + buffer[2] + buffer[3];
	LDD  R30,Y+6
	LDD  R31,Y+6+1
	LDD  R26,Y+4
	LDD  R27,Y+4+1
	ADD  R30,R26
	ADC  R31,R27
	LDD  R26,Y+8
	LDD  R27,Y+8+1
	ADD  R30,R26
	ADC  R31,R27
	LDD  R26,Y+10
	LDD  R27,Y+10+1
	ADD  R30,R26
	ADC  R31,R27
	MOVW R4,R30
;
;    if((checksum)!=buffer[4]) return 0;
	LDD  R30,Y+12
	LDD  R31,Y+12+1
	CP   R30,R4
	CPC  R31,R5
	BREQ _0x25
	LDI  R30,LOW(0)
	RJMP _0x214000D
;
;    *nhietdo = buffer[2];
_0x25:
	LDD  R30,Y+8
	LDD  R26,Y+16
	LDD  R27,Y+16+1
	ST   X,R30
;    *doam = buffer[0];
	LDD  R30,Y+4
	LDD  R26,Y+14
	LDD  R27,Y+14+1
	ST   X,R30
;    return 1;
	LDI  R30,LOW(1)
_0x214000D:
	CALL __LOADLOCR4
	ADIW R28,18
	RET
;}
; .FEND
;#include <banphim.c>
;#include <io.h>
;#include <delay.h>
;#include <stdio.h>
;#include <stdint.h>
;#include <stdlib.h>
;#include <alcd.h>
;#include <glcd.h>
;
;int keypad[3][3] = { {1, 2, 3}, {4, 5, 6}, {7, 8, 9} };

	.DSEG
;char input_buffer[16]; // Luu s? nh?p v?o (t?i da 15 k? t? + 1 null-terminator)
;int buffer_index = 0;  // V? tr? hi?n t?i trong b? d?m
;int number = 0;
;char number_str[6];
;
;void BUTTON() {
; 0000 000D void BUTTON() {

	.CSEG
_BUTTON:
; .FSTART _BUTTON
;    char a;
;    int i, j;
;    for (j = 0; j < 3; j++) {
	CALL __SAVELOCR6
;	a -> R17
;	i -> R18,R19
;	j -> R20,R21
	__GETWRN 20,21,0
_0x28:
	__CPWRN 20,21,3
	BRLT PC+2
	RJMP _0x29
;        // K?ch ho?t t?ng h?ng c?a b?n ph?m
;        if (j == 0) PORTF = 0b11111101;
	MOV  R0,R20
	OR   R0,R21
	BRNE _0x2A
	LDI  R30,LOW(253)
	STS  98,R30
;        if (j == 1) PORTF = 0b11110111;
_0x2A:
	LDI  R30,LOW(1)
	LDI  R31,HIGH(1)
	CP   R30,R20
	CPC  R31,R21
	BRNE _0x2B
	LDI  R30,LOW(247)
	STS  98,R30
;        if (j == 2) PORTF = 0b11011111;
_0x2B:
	LDI  R30,LOW(2)
	LDI  R31,HIGH(2)
	CP   R30,R20
	CPC  R31,R21
	BRNE _0x2C
	LDI  R30,LOW(223)
	STS  98,R30
;
;        for (i = 0; i < 3; i++) {
_0x2C:
	__GETWRN 18,19,0
_0x2E:
	__CPWRN 18,19,3
	BRGE _0x2F
;            // Ki?m tra t?ng c?t
;            if (i == 0) {
	MOV  R0,R18
	OR   R0,R19
	BRNE _0x30
;                a = PINF & 0x04;
	IN   R30,0x0
	ANDI R30,LOW(0x4)
	MOV  R17,R30
;                if (a != 0x04) {
	CPI  R17,4
	BREQ _0x31
;                    input_buffer[buffer_index++] = keypad[j][i] + '0'; // Chuy?n s? sang k? t? v? luu v?o b? d?m
	CALL SUBOPT_0x0
;                }
;            }
_0x31:
;            if (i == 1) {
_0x30:
	LDI  R30,LOW(1)
	LDI  R31,HIGH(1)
	CP   R30,R18
	CPC  R31,R19
	BRNE _0x32
;                delay_ms(50);
	LDI  R26,LOW(50)
	LDI  R27,0
	CALL _delay_ms
;                a = PINF & 0x10;
	IN   R30,0x0
	ANDI R30,LOW(0x10)
	MOV  R17,R30
;                if (a != 0x10) {
	CPI  R17,16
	BREQ _0x33
;                    input_buffer[buffer_index++] = keypad[j][i] + '0';
	CALL SUBOPT_0x0
;                }
;            }
_0x33:
;            if (i == 2) {
_0x32:
	LDI  R30,LOW(2)
	LDI  R31,HIGH(2)
	CP   R30,R18
	CPC  R31,R19
	BRNE _0x34
;                delay_ms(50);
	LDI  R26,LOW(50)
	LDI  R27,0
	CALL _delay_ms
;                a = PINF & 0x01;
	IN   R30,0x0
	ANDI R30,LOW(0x1)
	MOV  R17,R30
;                if (a != 0x01) {
	CPI  R17,1
	BREQ _0x35
;                    input_buffer[buffer_index++] = keypad[j][i] + '0';
	CALL SUBOPT_0x0
;                }
;            }
_0x35:
;        }
_0x34:
	__ADDWRN 18,19,1
	RJMP _0x2E
_0x2F:
;    }
	__ADDWRN 20,21,1
	RJMP _0x28
_0x29:
;}
	CALL __LOADLOCR6
	JMP  _0x2140009
; .FEND
;
;void display_input() {
_display_input:
; .FSTART _display_input
;    input_buffer[buffer_index] = '\0'; // K?t th?c chu?i
	LDI  R26,LOW(_input_buffer)
	LDI  R27,HIGH(_input_buffer)
	ADD  R26,R6
	ADC  R27,R7
	LDI  R30,LOW(0)
	ST   X,R30
;    number = atoi(input_buffer); // Chuy?n chu?i th?nh s? nguy?n
	LDI  R26,LOW(_input_buffer)
	LDI  R27,HIGH(_input_buffer)
	CALL _atoi
	MOVW R8,R30
;    sprintf(number_str, "%d", number); // Chuy?n s? nguy?n th?nh chu?i d? hi?n th?
	LDI  R30,LOW(_number_str)
	LDI  R31,HIGH(_number_str)
	CALL SUBOPT_0x1
	MOVW R30,R8
	CALL __CWD1
	CALL SUBOPT_0x2
;    lcd_clear();
	CALL _lcd_clear
;    lcd_putsf("NHAP TEMP:");
	__POINTW2FN _0x0,3
	CALL _lcd_putsf
;    lcd_puts(input_buffer); // Hi?n th? s? nguy?n l?n LCD
	LDI  R26,LOW(_input_buffer)
	LDI  R27,HIGH(_input_buffer)
	CALL _lcd_puts
;    glcd_clear();
	RCALL _glcd_clear
;    glcd_outtextxy(0, 10, "NHAP TEMP:");
	LDI  R30,LOW(0)
	ST   -Y,R30
	LDI  R30,LOW(10)
	ST   -Y,R30
	__POINTW2MN _0x36,0
	CALL _glcd_outtextxy
;    glcd_outtext(input_buffer);
	LDI  R26,LOW(_input_buffer)
	LDI  R27,HIGH(_input_buffer)
	RJMP _0x214000B
;}
; .FEND

	.DSEG
_0x36:
	.BYTE 0xB
;
;char get_temp() {

	.CSEG
_get_temp:
; .FSTART _get_temp
;    DDRD = 0xFF;
	LDI  R30,LOW(255)
	OUT  0x11,R30
;    PORTD = 0xB6;
	LDI  R30,LOW(182)
	OUT  0x12,R30
;    lcd_init(16);
	LDI  R26,LOW(16)
	CALL _lcd_init
;    DDRF = 0b11101010;
	LDI  R30,LOW(234)
	STS  97,R30
;    PORTF = 0b00010101;
	LDI  R30,LOW(21)
	STS  98,R30
;    //pull up BT3
;    DDRB.2 = 0;
	CBI  0x17,2
;    PORTB.0 = 1;
	SBI  0x18,0
;    lcd_clear();
	CALL _lcd_clear
;    lcd_puts("NHAP TEMP:");
	__POINTW2MN _0x3B,0
	CALL _lcd_puts
;
;    while (1) {
_0x3C:
;        BUTTON();
	RCALL _BUTTON
;        display_input();
	RCALL _display_input
;        // N?u b? d?m d?y, hi?n th? s? v? reset l?i b? d?m
;        if (buffer_index >= 2) {
	LDI  R30,LOW(2)
	LDI  R31,HIGH(2)
	CP   R6,R30
	CPC  R7,R31
	BRGE _0x214000C
;            buffer_index = 0; // Reset ch? s?
;            return number;
;        }
;        if (PINB.0 == 0){
	SBIC 0x16,0
	RJMP _0x40
;            buffer_index = 0;
_0x214000C:
	CLR  R6
	CLR  R7
;            return number;
	MOV  R30,R8
	RET
;        }
;    }
_0x40:
	RJMP _0x3C
;}
; .FEND

	.DSEG
_0x3B:
	.BYTE 0xB
;
;char x = 0;
;unsigned char nhietdo = 0, doam = 0;
;unsigned char nhietdo_naodo = 999;
;bool say_xong = false;
;int counter = 0;
;char temp_str[4];
;// Interrupt cua timer1
;interrupt [TIM1_OVF] void timer1_ovf_isr(void)
; 0000 0017 {

	.CSEG
_timer1_ovf_isr:
; .FSTART _timer1_ovf_isr
	ST   -Y,R26
	ST   -Y,R27
	ST   -Y,R30
	ST   -Y,R31
	IN   R30,SREG
	ST   -Y,R30
; 0000 0018     // Reinitialize Timer1 value
; 0000 0019     TCNT1H=0xE0C0 >> 8;
	LDI  R30,LOW(224)
	OUT  0x2D,R30
; 0000 001A     TCNT1L=0xE0C0 & 0xff;
	LDI  R30,LOW(192)
	OUT  0x2C,R30
; 0000 001B     // Place your code here
; 0000 001C     if (say_xong) {
	LDS  R30,_say_xong
	CPI  R30,0
	BREQ _0x41
; 0000 001D         if (counter == 2000)
	LDS  R26,_counter
	LDS  R27,_counter+1
	CPI  R26,LOW(0x7D0)
	LDI  R30,HIGH(0x7D0)
	CPC  R27,R30
	BRNE _0x42
; 0000 001E             counter  = 0;
	LDI  R30,LOW(0)
	STS  _counter,R30
	STS  _counter+1,R30
; 0000 001F 
; 0000 0020         if (counter == 0) {
_0x42:
	LDS  R30,_counter
	LDS  R31,_counter+1
	SBIW R30,0
	BRNE _0x43
; 0000 0021             PORTD.4 = 0;
	CBI  0x12,4
; 0000 0022             PORTD.5 = 1;
	SBI  0x12,5
; 0000 0023         }
; 0000 0024 
; 0000 0025         if (counter == 1000) {
_0x43:
	LDS  R26,_counter
	LDS  R27,_counter+1
	CPI  R26,LOW(0x3E8)
	LDI  R30,HIGH(0x3E8)
	CPC  R27,R30
	BRNE _0x48
; 0000 0026             PORTD.5 = 0;
	CBI  0x12,5
; 0000 0027             PORTD.4 = 1;
	SBI  0x12,4
; 0000 0028         }
; 0000 0029         counter++;
_0x48:
	LDI  R26,LOW(_counter)
	LDI  R27,HIGH(_counter)
	CALL SUBOPT_0x3
; 0000 002A     }
; 0000 002B }
_0x41:
	LD   R30,Y+
	OUT  SREG,R30
	LD   R31,Y+
	LD   R30,Y+
	LD   R27,Y+
	LD   R26,Y+
	RETI
; .FEND
;
;void adjustSpeed(int speed) {
; 0000 002D void adjustSpeed(int speed) {
_adjustSpeed:
; .FSTART _adjustSpeed
; 0000 002E     OCR0 = 255 - speed;
	ST   -Y,R27
	ST   -Y,R26
;	speed -> Y+0
	LD   R26,Y
	LDI  R30,LOW(255)
	SUB  R30,R26
	OUT  0x31,R30
; 0000 002F }
	RJMP _0x214000A
; .FEND
;
;void hien_thi() {
; 0000 0031 void hien_thi() {
_hien_thi:
; .FSTART _hien_thi
; 0000 0032     x = dht11(&nhietdo, &doam);
	LDI  R30,LOW(10)
	LDI  R31,HIGH(10)
	ST   -Y,R31
	ST   -Y,R30
	LDI  R26,LOW(13)
	LDI  R27,HIGH(13)
	RCALL _dht11
	MOV  R11,R30
; 0000 0033 
; 0000 0034     if (x == 1) {
	LDI  R30,LOW(1)
	CP   R30,R11
	BRNE _0x4D
; 0000 0035         lcd_clear();
	CALL _lcd_clear
; 0000 0036         lcd_gotoxy(0, 0);
	LDI  R30,LOW(0)
	ST   -Y,R30
	LDI  R26,LOW(0)
	CALL SUBOPT_0x4
; 0000 0037         lcd_putsf("TEMP:");
; 0000 0038         lcd_putchar(nhietdo / 10 + 48);
	MOV  R26,R10
	CALL SUBOPT_0x5
; 0000 0039         lcd_putchar(nhietdo % 10 + 48);
	MOV  R26,R10
	CALL SUBOPT_0x6
; 0000 003A         lcd_gotoxy(0, 1);
	LDI  R30,LOW(0)
	ST   -Y,R30
	LDI  R26,LOW(1)
	CALL _lcd_gotoxy
; 0000 003B         lcd_putsf("HUMI:");
	__POINTW2FN _0x0,14
	CALL _lcd_putsf
; 0000 003C         lcd_putchar(doam / 10 + 48);
	MOV  R26,R13
	CALL SUBOPT_0x5
; 0000 003D         lcd_putchar(doam % 10 + 48);
	MOV  R26,R13
	CALL SUBOPT_0x6
; 0000 003E         glcd_clear();
	RCALL _glcd_clear
; 0000 003F         glcd_outtext("TEMP:");
	__POINTW2MN _0x4E,0
	CALL SUBOPT_0x7
; 0000 0040         sprintf(temp_str, "%d", nhietdo);
	MOV  R30,R10
	CALL SUBOPT_0x8
; 0000 0041         glcd_outtext(temp_str);
	LDI  R26,LOW(_temp_str)
	LDI  R27,HIGH(_temp_str)
	CALL SUBOPT_0x7
; 0000 0042         sprintf(temp_str, "%d", doam);
	MOV  R30,R13
	CALL SUBOPT_0x8
; 0000 0043         glcd_outtextxy(0, 15, "HUMI:");
	LDI  R30,LOW(0)
	ST   -Y,R30
	LDI  R30,LOW(15)
	ST   -Y,R30
	__POINTW2MN _0x4E,6
	CALL _glcd_outtextxy
; 0000 0044         glcd_outtextxy(30, 15, temp_str);
	LDI  R30,LOW(30)
	ST   -Y,R30
	LDI  R30,LOW(15)
	ST   -Y,R30
	LDI  R26,LOW(_temp_str)
	LDI  R27,HIGH(_temp_str)
	CALL _glcd_outtextxy
; 0000 0045 
; 0000 0046     }
; 0000 0047 }
_0x4D:
	RET
; .FEND

	.DSEG
_0x4E:
	.BYTE 0xC
;
;void nhap_nhietdo(){
; 0000 0049 void nhap_nhietdo(){

	.CSEG
_nhap_nhietdo:
; .FSTART _nhap_nhietdo
; 0000 004A     nhietdo_naodo = get_temp();
	RCALL _get_temp
	MOV  R12,R30
; 0000 004B     lcd_gotoxy(0, 1);
	LDI  R30,LOW(0)
	ST   -Y,R30
	LDI  R26,LOW(1)
	CALL SUBOPT_0x4
; 0000 004C     lcd_putsf("TEMP:");
; 0000 004D     lcd_putchar(nhietdo_naodo / 10 + 48);
	MOV  R26,R12
	CALL SUBOPT_0x5
; 0000 004E     lcd_putchar(nhietdo_naodo % 10 + '0');
	MOV  R26,R12
	CALL SUBOPT_0x6
; 0000 004F     glcd_clear();
	RCALL _glcd_clear
; 0000 0050     glcd_outtext("TEMP:");
	__POINTW2MN _0x4F,0
	CALL SUBOPT_0x7
; 0000 0051     sprintf(temp_str, "%d", nhietdo_naodo);
	MOV  R30,R12
	CALL SUBOPT_0x8
; 0000 0052     glcd_outtext(temp_str); // Truy?n chu?i cho glcd_outtext()
	LDI  R26,LOW(_temp_str)
	LDI  R27,HIGH(_temp_str)
_0x214000B:
	CALL _glcd_outtext
; 0000 0053 }
	RET
; .FEND

	.DSEG
_0x4F:
	.BYTE 0x6
;
;void main(void)
; 0000 0056 {

	.CSEG
_main:
; .FSTART _main
; 0000 0057     //init GLCD
; 0000 0058     GLCDINIT_t glcd_init_data;
; 0000 0059     glcd_init_data.font=font5x7;
	SBIW R28,8
;	glcd_init_data -> Y+0
	LDI  R30,LOW(_font5x7*2)
	LDI  R31,HIGH(_font5x7*2)
	ST   Y,R30
	STD  Y+1,R31
; 0000 005A     glcd_init_data.temp_coef=140;
	LDD  R30,Y+6
	ANDI R30,LOW(0xFC)
	STD  Y+6,R30
; 0000 005B     glcd_init_data.bias=4;
	ANDI R30,LOW(0xE3)
	ORI  R30,0x10
	STD  Y+6,R30
; 0000 005C     glcd_init_data.vlcd=66;
	LDD  R30,Y+7
	ANDI R30,LOW(0x80)
	ORI  R30,LOW(0x42)
	STD  Y+7,R30
; 0000 005D     glcd_init(&glcd_init_data);
	MOVW R26,R28
	RCALL _glcd_init
; 0000 005E 
; 0000 005F     //init LCD
; 0000 0060     lcd_init(16);
	LDI  R26,LOW(16)
	CALL _lcd_init
; 0000 0061 
; 0000 0062     // some port
; 0000 0063     DDRB.4 = 1;
	SBI  0x17,4
; 0000 0064     DDRD.7 = 1;
	SBI  0x11,7
; 0000 0065     DDRD.4 = 1;
	SBI  0x11,4
; 0000 0066     DDRD.5 = 1;
	SBI  0x11,5
; 0000 0067     // khoi tao timer 0 cho dong co
; 0000 0068     ASSR=0<<AS0;
	LDI  R30,LOW(0)
	OUT  0x30,R30
; 0000 0069     TCCR0=(1<<WGM00) | (1<<COM01) | (1<<COM00) | (0<<WGM01) | (1<<CS02) | (0<<CS01) | (0<<CS00);
	LDI  R30,LOW(116)
	OUT  0x33,R30
; 0000 006A     TCNT0=0x00;
	LDI  R30,LOW(0)
	OUT  0x32,R30
; 0000 006B     adjustSpeed(0);
	LDI  R26,LOW(0)
	LDI  R27,0
	RCALL _adjustSpeed
; 0000 006C 
; 0000 006D     // khoi tao timer 1 voi chu ki 1 ms
; 0000 006E     TCCR1A=(0<<COM1A1) | (0<<COM1A0) | (0<<COM1B1) | (0<<COM1B0) | (0<<COM1C1) | (0<<COM1C0) | (0<<WGM11) | (0<<WGM10);
	LDI  R30,LOW(0)
	OUT  0x2F,R30
; 0000 006F     TCCR1B=(0<<ICNC1) | (0<<ICES1) | (0<<WGM13) | (0<<WGM12) | (0<<CS12) | (0<<CS11) | (1<<CS10);
	LDI  R30,LOW(1)
	OUT  0x2E,R30
; 0000 0070     TCNT1H=0xE0;
	LDI  R30,LOW(224)
	OUT  0x2D,R30
; 0000 0071     TCNT1L=0xC0;
	LDI  R30,LOW(192)
	OUT  0x2C,R30
; 0000 0072 
; 0000 0073     // khoi tao interrupt cho timer1
; 0000 0074     TIMSK=(0<<OCIE2) | (0<<TOIE2) | (0<<TICIE1) | (0<<OCIE1A) | (0<<OCIE1B) | (1<<TOIE1) | (0<<OCIE0) | (0<<TOIE0);
	LDI  R30,LOW(4)
	OUT  0x37,R30
; 0000 0075     ETIMSK=(0<<TICIE3) | (0<<OCIE3A) | (0<<OCIE3B) | (0<<TOIE3) | (0<<OCIE3C) | (0<<OCIE1C);
	LDI  R30,LOW(0)
	STS  125,R30
; 0000 0076 
; 0000 0077     //pull up BT1
; 0000 0078     DDRB.2 = 0;
	CBI  0x17,2
; 0000 0079     PORTB.2 = 1;
	SBI  0x18,2
; 0000 007A     //pull up BT2
; 0000 007B     DDRB.3 = 0;
	CBI  0x17,3
; 0000 007C     PORTB.3 = 1;
	SBI  0x18,3
; 0000 007D     #asm("sei")
	sei
; 0000 007E 
; 0000 007F     lcd_putsf("NHAP TEMP: BT1");
	__POINTW2FN _0x0,20
	CALL _lcd_putsf
; 0000 0080     lcd_gotoxy(0, 1);
	LDI  R30,LOW(0)
	ST   -Y,R30
	LDI  R26,LOW(1)
	CALL _lcd_gotoxy
; 0000 0081     lcd_putsf("HIEN THI: BT2");
	__POINTW2FN _0x0,35
	CALL _lcd_putsf
; 0000 0082 
; 0000 0083     glcd_outtextxy(0, 10, "NHAP TEMP: BT1");
	LDI  R30,LOW(0)
	ST   -Y,R30
	LDI  R30,LOW(10)
	ST   -Y,R30
	__POINTW2MN _0x60,0
	CALL _glcd_outtextxy
; 0000 0084     glcd_outtextxy(0, 20, "HIEN THI: BT2");
	LDI  R30,LOW(0)
	ST   -Y,R30
	LDI  R30,LOW(20)
	ST   -Y,R30
	__POINTW2MN _0x60,15
	CALL _glcd_outtextxy
; 0000 0085 
; 0000 0086 while (1)
_0x61:
; 0000 0087     {
; 0000 0088         if (PINB.2 == 0){
	SBIS 0x16,2
; 0000 0089             nhap_nhietdo();
	RCALL _nhap_nhietdo
; 0000 008A         }
; 0000 008B         if (PINB.3 == 0){
	SBIS 0x16,3
; 0000 008C             hien_thi();
	RCALL _hien_thi
; 0000 008D         }
; 0000 008E     // Please write your application code here
; 0000 008F 
; 0000 0090 
; 0000 0091     }
	RJMP _0x61
; 0000 0092 }
_0x66:
	RJMP _0x66
; .FEND

	.DSEG
_0x60:
	.BYTE 0x1D
	#ifndef __SLEEP_DEFINED__
	#define __SLEEP_DEFINED__
	.EQU __se_bit=0x20
	.EQU __sm_mask=0x1C
	.EQU __sm_powerdown=0x10
	.EQU __sm_powersave=0x18
	.EQU __sm_standby=0x14
	.EQU __sm_ext_standby=0x1C
	.EQU __sm_adc_noise_red=0x08
	.SET power_ctrl_reg=mcucr
	#endif

	.CSEG
_pcd8544_delay_G100:
; .FSTART _pcd8544_delay_G100
	RET
; .FEND
_pcd8544_wrbus_G100:
; .FSTART _pcd8544_wrbus_G100
	ST   -Y,R26
	ST   -Y,R17
	LDS  R30,101
	ANDI R30,0xEF
	STS  101,R30
	LDI  R17,LOW(8)
_0x2000004:
	RCALL _pcd8544_delay_G100
	LDD  R30,Y+1
	ANDI R30,LOW(0x80)
	BREQ _0x2000006
	LDS  R30,101
	ORI  R30,2
	RJMP _0x20000A0
_0x2000006:
	LDS  R30,101
	ANDI R30,0xFD
_0x20000A0:
	STS  101,R30
	LDD  R30,Y+1
	LSL  R30
	STD  Y+1,R30
	RCALL _pcd8544_delay_G100
	LDS  R30,101
	ORI  R30,4
	STS  101,R30
	RCALL _pcd8544_delay_G100
	LDS  R30,101
	ANDI R30,0xFB
	STS  101,R30
	SUBI R17,LOW(1)
	BRNE _0x2000004
	LDS  R30,101
	ORI  R30,0x10
	STS  101,R30
	LDD  R17,Y+0
	RJMP _0x214000A
; .FEND
_pcd8544_wrcmd:
; .FSTART _pcd8544_wrcmd
	ST   -Y,R26
	LDS  R30,101
	ANDI R30,0xFE
	STS  101,R30
	LD   R26,Y
	RCALL _pcd8544_wrbus_G100
	JMP  _0x2140005
; .FEND
_pcd8544_wrdata_G100:
; .FSTART _pcd8544_wrdata_G100
	ST   -Y,R26
	LDS  R30,101
	ORI  R30,1
	STS  101,R30
	LD   R26,Y
	RCALL _pcd8544_wrbus_G100
	JMP  _0x2140005
; .FEND
_pcd8544_setaddr_G100:
; .FSTART _pcd8544_setaddr_G100
	ST   -Y,R26
	ST   -Y,R17
	LDD  R30,Y+1
	LSR  R30
	LSR  R30
	LSR  R30
	MOV  R17,R30
	LDI  R30,LOW(84)
	MUL  R30,R17
	MOVW R30,R0
	MOVW R26,R30
	LDD  R30,Y+2
	LDI  R31,0
	ADD  R30,R26
	ADC  R31,R27
	STS  _gfx_addr_G100,R30
	STS  _gfx_addr_G100+1,R31
	MOV  R30,R17
	LDD  R17,Y+0
	ADIW R28,3
	RET
; .FEND
_pcd8544_gotoxy:
; .FSTART _pcd8544_gotoxy
	ST   -Y,R26
	LDD  R30,Y+1
	ORI  R30,0x80
	MOV  R26,R30
	RCALL _pcd8544_wrcmd
	LDD  R30,Y+1
	ST   -Y,R30
	LDD  R26,Y+1
	RCALL _pcd8544_setaddr_G100
	ORI  R30,0x40
	MOV  R26,R30
	RCALL _pcd8544_wrcmd
	RJMP _0x214000A
; .FEND
_pcd8544_rdbyte:
; .FSTART _pcd8544_rdbyte
	ST   -Y,R26
	LDD  R30,Y+1
	ST   -Y,R30
	LDD  R26,Y+1
	RCALL _pcd8544_gotoxy
	LDS  R30,_gfx_addr_G100
	LDS  R31,_gfx_addr_G100+1
	SUBI R30,LOW(-_gfx_buffer_G100)
	SBCI R31,HIGH(-_gfx_buffer_G100)
	LD   R30,Z
_0x214000A:
	ADIW R28,2
	RET
; .FEND
_pcd8544_wrbyte:
; .FSTART _pcd8544_wrbyte
	ST   -Y,R26
	CALL SUBOPT_0x9
	SBIW R30,1
	SUBI R30,LOW(-_gfx_buffer_G100)
	SBCI R31,HIGH(-_gfx_buffer_G100)
	LD   R26,Y
	STD  Z+0,R26
	RCALL _pcd8544_wrdata_G100
	JMP  _0x2140005
; .FEND
_glcd_init:
; .FSTART _glcd_init
	ST   -Y,R27
	ST   -Y,R26
	CALL __SAVELOCR4
	LDS  R30,100
	ORI  R30,0x10
	CALL SUBOPT_0xA
	ORI  R30,0x10
	STS  101,R30
	LDS  R30,100
	ORI  R30,4
	CALL SUBOPT_0xA
	ANDI R30,0xFB
	STS  101,R30
	LDS  R30,100
	ORI  R30,2
	STS  100,R30
	LDS  R30,100
	ORI  R30,1
	STS  100,R30
	LDS  R30,100
	ORI  R30,8
	CALL SUBOPT_0xA
	ANDI R30,0XF7
	STS  101,R30
	LDI  R26,LOW(10)
	LDI  R27,0
	CALL _delay_ms
	LDS  R30,101
	ORI  R30,8
	STS  101,R30
	LDD  R30,Y+4
	LDD  R31,Y+4+1
	SBIW R30,0
	BREQ _0x2000008
	LDD  R30,Z+6
	ANDI R30,LOW(0x3)
	MOV  R17,R30
	LDD  R30,Y+4
	LDD  R31,Y+4+1
	LDD  R30,Z+6
	LSR  R30
	LSR  R30
	ANDI R30,LOW(0x7)
	MOV  R16,R30
	LDD  R30,Y+4
	LDD  R31,Y+4+1
	LDD  R30,Z+7
	ANDI R30,0x7F
	MOV  R19,R30
	LDD  R26,Y+4
	LDD  R27,Y+4+1
	CALL __GETW1P
	__PUTW1MN _glcd_state,4
	ADIW R26,2
	CALL __GETW1P
	__PUTW1MN _glcd_state,25
	LDD  R26,Y+4
	LDD  R27,Y+4+1
	ADIW R26,4
	CALL __GETW1P
	RJMP _0x20000A1
_0x2000008:
	LDI  R17,LOW(0)
	LDI  R16,LOW(3)
	LDI  R19,LOW(50)
	LDI  R30,LOW(0)
	LDI  R31,HIGH(0)
	__PUTW1MN _glcd_state,4
	__PUTW1MN _glcd_state,25
_0x20000A1:
	__PUTW1MN _glcd_state,27
	LDI  R26,LOW(33)
	RCALL _pcd8544_wrcmd
	MOV  R30,R17
	ORI  R30,4
	MOV  R26,R30
	RCALL _pcd8544_wrcmd
	MOV  R30,R16
	ORI  R30,0x10
	MOV  R26,R30
	RCALL _pcd8544_wrcmd
	MOV  R30,R19
	ORI  R30,0x80
	MOV  R26,R30
	RCALL _pcd8544_wrcmd
	LDI  R26,LOW(32)
	RCALL _pcd8544_wrcmd
	LDI  R26,LOW(1)
	RCALL _glcd_display
	LDI  R30,LOW(1)
	STS  _glcd_state,R30
	LDI  R30,LOW(0)
	__PUTB1MN _glcd_state,1
	LDI  R30,LOW(1)
	__PUTB1MN _glcd_state,6
	__PUTB1MN _glcd_state,7
	__PUTB1MN _glcd_state,8
	LDI  R30,LOW(255)
	__PUTB1MN _glcd_state,9
	LDI  R30,LOW(1)
	__PUTB1MN _glcd_state,16
	__POINTW1MN _glcd_state,17
	ST   -Y,R31
	ST   -Y,R30
	LDI  R30,LOW(255)
	ST   -Y,R30
	LDI  R26,LOW(8)
	LDI  R27,0
	CALL _memset
	RCALL _glcd_clear
	LDI  R30,LOW(1)
	CALL __LOADLOCR4
	RJMP _0x2140009
; .FEND
_glcd_display:
; .FSTART _glcd_display
	ST   -Y,R26
	LD   R30,Y
	CPI  R30,0
	BREQ _0x200000A
	LDI  R30,LOW(12)
	RJMP _0x200000B
_0x200000A:
	LDI  R30,LOW(8)
_0x200000B:
	MOV  R26,R30
	RCALL _pcd8544_wrcmd
	JMP  _0x2140005
; .FEND
_glcd_clear:
; .FSTART _glcd_clear
	CALL __SAVELOCR4
	LDI  R19,0
	__GETB1MN _glcd_state,1
	CPI  R30,0
	BREQ _0x200000D
	LDI  R19,LOW(255)
_0x200000D:
	LDI  R30,LOW(0)
	ST   -Y,R30
	LDI  R26,LOW(0)
	RCALL _pcd8544_gotoxy
	__GETWRN 16,17,504
_0x200000E:
	MOVW R30,R16
	__SUBWRN 16,17,1
	SBIW R30,0
	BREQ _0x2000010
	MOV  R26,R19
	RCALL _pcd8544_wrbyte
	RJMP _0x200000E
_0x2000010:
	LDI  R30,LOW(0)
	ST   -Y,R30
	LDI  R26,LOW(0)
	RCALL _glcd_moveto
	CALL __LOADLOCR4
	ADIW R28,4
	RET
; .FEND
_pcd8544_wrmasked_G100:
; .FSTART _pcd8544_wrmasked_G100
	ST   -Y,R26
	ST   -Y,R17
	LDD  R30,Y+5
	ST   -Y,R30
	LDD  R26,Y+5
	RCALL _pcd8544_rdbyte
	MOV  R17,R30
	LDD  R30,Y+1
	CPI  R30,LOW(0x7)
	BREQ _0x2000020
	CPI  R30,LOW(0x8)
	BRNE _0x2000021
_0x2000020:
	LDD  R30,Y+3
	ST   -Y,R30
	LDD  R26,Y+2
	CALL _glcd_mappixcolor1bit
	STD  Y+3,R30
	RJMP _0x2000022
_0x2000021:
	CPI  R30,LOW(0x3)
	BRNE _0x2000024
	LDD  R30,Y+3
	COM  R30
	STD  Y+3,R30
	RJMP _0x2000025
_0x2000024:
	CPI  R30,0
	BRNE _0x2000026
_0x2000025:
_0x2000022:
	LDD  R30,Y+2
	COM  R30
	AND  R17,R30
	RJMP _0x2000027
_0x2000026:
	CPI  R30,LOW(0x2)
	BRNE _0x2000028
_0x2000027:
	LDD  R30,Y+2
	LDD  R26,Y+3
	AND  R30,R26
	OR   R17,R30
	RJMP _0x200001E
_0x2000028:
	CPI  R30,LOW(0x1)
	BRNE _0x2000029
	LDD  R30,Y+2
	LDD  R26,Y+3
	AND  R30,R26
	EOR  R17,R30
	RJMP _0x200001E
_0x2000029:
	CPI  R30,LOW(0x4)
	BRNE _0x200001E
	LDD  R30,Y+2
	COM  R30
	LDD  R26,Y+3
	OR   R30,R26
	AND  R17,R30
_0x200001E:
	MOV  R26,R17
	RCALL _pcd8544_wrbyte
	LDD  R17,Y+0
_0x2140009:
	ADIW R28,6
	RET
; .FEND
_glcd_block:
; .FSTART _glcd_block
	ST   -Y,R26
	SBIW R28,3
	CALL __SAVELOCR6
	LDD  R26,Y+16
	CPI  R26,LOW(0x54)
	BRSH _0x200002C
	LDD  R26,Y+15
	CPI  R26,LOW(0x30)
	BRSH _0x200002C
	LDD  R26,Y+14
	CPI  R26,LOW(0x0)
	BREQ _0x200002C
	LDD  R26,Y+13
	CPI  R26,LOW(0x0)
	BRNE _0x200002B
_0x200002C:
	RJMP _0x2140008
_0x200002B:
	LDD  R30,Y+14
	STD  Y+8,R30
	LDD  R26,Y+16
	CLR  R27
	LDD  R30,Y+14
	LDI  R31,0
	ADD  R26,R30
	ADC  R27,R31
	CPI  R26,LOW(0x55)
	LDI  R30,HIGH(0x55)
	CPC  R27,R30
	BRLO _0x200002E
	LDD  R26,Y+16
	LDI  R30,LOW(84)
	SUB  R30,R26
	STD  Y+14,R30
_0x200002E:
	LDD  R18,Y+13
	LDD  R26,Y+15
	CLR  R27
	LDD  R30,Y+13
	LDI  R31,0
	ADD  R26,R30
	ADC  R27,R31
	SBIW R26,49
	BRLO _0x200002F
	LDD  R26,Y+15
	LDI  R30,LOW(48)
	SUB  R30,R26
	STD  Y+13,R30
_0x200002F:
	LDD  R26,Y+9
	CPI  R26,LOW(0x6)
	BREQ PC+2
	RJMP _0x2000030
	LDD  R30,Y+12
	CPI  R30,LOW(0x1)
	BRNE _0x2000034
	RJMP _0x2140008
_0x2000034:
	CPI  R30,LOW(0x3)
	BRNE _0x2000037
	__GETW1MN _glcd_state,27
	SBIW R30,0
	BRNE _0x2000036
	RJMP _0x2140008
_0x2000036:
_0x2000037:
	LDD  R16,Y+8
	LDD  R30,Y+13
	LSR  R30
	LSR  R30
	LSR  R30
	MOV  R19,R30
	MOV  R30,R18
	ANDI R30,LOW(0x7)
	BRNE _0x2000039
	LDD  R26,Y+13
	CP   R18,R26
	BREQ _0x2000038
_0x2000039:
	MOV  R26,R16
	CLR  R27
	MOV  R30,R19
	LDI  R31,0
	CALL __MULW12U
	LDD  R26,Y+10
	LDD  R27,Y+10+1
	CALL SUBOPT_0xB
	LSR  R18
	LSR  R18
	LSR  R18
	MOV  R21,R19
_0x200003B:
	PUSH R21
	SUBI R21,-1
	MOV  R30,R18
	POP  R26
	CP   R30,R26
	BRLO _0x200003D
	MOV  R17,R16
_0x200003E:
	MOV  R30,R17
	SUBI R17,1
	CPI  R30,0
	BREQ _0x2000040
	CALL SUBOPT_0xC
	RJMP _0x200003E
_0x2000040:
	RJMP _0x200003B
_0x200003D:
_0x2000038:
	LDD  R26,Y+14
	CP   R16,R26
	BREQ _0x2000041
	LDD  R30,Y+14
	LDD  R26,Y+10
	LDD  R27,Y+10+1
	LDI  R31,0
	CALL SUBOPT_0xB
	LDD  R30,Y+13
	ANDI R30,LOW(0x7)
	BREQ _0x2000042
	SUBI R19,-LOW(1)
_0x2000042:
	LDI  R18,LOW(0)
_0x2000043:
	PUSH R18
	SUBI R18,-1
	MOV  R30,R19
	POP  R26
	CP   R26,R30
	BRSH _0x2000045
	LDD  R17,Y+14
_0x2000046:
	PUSH R17
	SUBI R17,-1
	MOV  R30,R16
	POP  R26
	CP   R26,R30
	BRSH _0x2000048
	CALL SUBOPT_0xC
	RJMP _0x2000046
_0x2000048:
	LDD  R30,Y+14
	LDD  R26,Y+6
	LDD  R27,Y+6+1
	LDI  R31,0
	CALL SUBOPT_0xB
	RJMP _0x2000043
_0x2000045:
_0x2000041:
_0x2000030:
	LDD  R30,Y+15
	ANDI R30,LOW(0x7)
	MOV  R19,R30
_0x2000049:
	LDD  R30,Y+13
	CPI  R30,0
	BRNE PC+2
	RJMP _0x200004B
	LDD  R30,Y+10
	LDD  R31,Y+10+1
	STD  Y+6,R30
	STD  Y+6+1,R31
	LDI  R17,LOW(0)
	LDD  R16,Y+16
	CPI  R19,0
	BREQ PC+2
	RJMP _0x200004C
	LDD  R26,Y+13
	CPI  R26,LOW(0x8)
	BRSH PC+2
	RJMP _0x200004D
	LDD  R30,Y+9
	CPI  R30,0
	BREQ _0x2000052
	CPI  R30,LOW(0x3)
	BRNE _0x2000053
_0x2000052:
	RJMP _0x2000054
_0x2000053:
	CPI  R30,LOW(0x7)
	BRNE _0x2000055
_0x2000054:
	RJMP _0x2000056
_0x2000055:
	CPI  R30,LOW(0x8)
	BRNE _0x2000057
_0x2000056:
	RJMP _0x2000058
_0x2000057:
	CPI  R30,LOW(0x9)
	BRNE _0x2000059
_0x2000058:
	RJMP _0x200005A
_0x2000059:
	CPI  R30,LOW(0xA)
	BRNE _0x200005B
_0x200005A:
	ST   -Y,R16
	LDD  R26,Y+16
	RCALL _pcd8544_gotoxy
	RJMP _0x2000050
_0x200005B:
	CPI  R30,LOW(0x6)
	BRNE _0x2000050
	CALL SUBOPT_0xD
_0x2000050:
_0x200005D:
	PUSH R17
	SUBI R17,-1
	LDD  R30,Y+14
	POP  R26
	CP   R26,R30
	BRSH _0x200005F
	LDD  R26,Y+9
	CPI  R26,LOW(0x6)
	BRNE _0x2000060
	CALL SUBOPT_0xE
	ST   -Y,R31
	ST   -Y,R30
	CALL SUBOPT_0x9
	SBIW R30,1
	SUBI R30,LOW(-_gfx_buffer_G100)
	SBCI R31,HIGH(-_gfx_buffer_G100)
	LD   R26,Z
	CALL _glcd_writemem
	RJMP _0x2000061
_0x2000060:
	LDD  R30,Y+9
	CPI  R30,LOW(0x9)
	BRNE _0x2000065
	LDI  R21,LOW(0)
	RJMP _0x2000066
_0x2000065:
	CPI  R30,LOW(0xA)
	BRNE _0x2000064
	LDI  R21,LOW(255)
	RJMP _0x2000066
_0x2000064:
	CALL SUBOPT_0xE
	CALL SUBOPT_0xF
	MOV  R21,R30
	LDD  R30,Y+9
	CPI  R30,LOW(0x7)
	BREQ _0x200006D
	CPI  R30,LOW(0x8)
	BRNE _0x200006E
_0x200006D:
_0x2000066:
	CALL SUBOPT_0x10
	MOV  R21,R30
	RJMP _0x200006F
_0x200006E:
	CPI  R30,LOW(0x3)
	BRNE _0x2000071
	COM  R21
	RJMP _0x2000072
_0x2000071:
	CPI  R30,0
	BRNE _0x2000074
_0x2000072:
_0x200006F:
	MOV  R26,R21
	RCALL _pcd8544_wrdata_G100
	RJMP _0x200006B
_0x2000074:
	CALL SUBOPT_0x11
	LDI  R30,LOW(255)
	ST   -Y,R30
	LDD  R26,Y+13
	RCALL _pcd8544_wrmasked_G100
_0x200006B:
_0x2000061:
	RJMP _0x200005D
_0x200005F:
	LDD  R30,Y+15
	SUBI R30,-LOW(8)
	STD  Y+15,R30
	LDD  R30,Y+13
	SUBI R30,LOW(8)
	STD  Y+13,R30
	RJMP _0x2000075
_0x200004D:
	LDD  R21,Y+13
	LDI  R18,LOW(0)
	LDI  R30,LOW(0)
	STD  Y+13,R30
	RJMP _0x2000076
_0x200004C:
	MOV  R30,R19
	LDD  R26,Y+13
	ADD  R26,R30
	CPI  R26,LOW(0x9)
	BRSH _0x2000077
	LDD  R18,Y+13
	LDI  R30,LOW(0)
	STD  Y+13,R30
	RJMP _0x2000078
_0x2000077:
	LDI  R30,LOW(8)
	SUB  R30,R19
	MOV  R18,R30
_0x2000078:
	ST   -Y,R19
	MOV  R26,R18
	CALL _glcd_getmask
	MOV  R20,R30
	LDD  R30,Y+9
	CPI  R30,LOW(0x6)
	BRNE _0x200007C
	CALL SUBOPT_0xD
_0x200007D:
	PUSH R17
	SUBI R17,-1
	LDD  R30,Y+14
	POP  R26
	CP   R26,R30
	BRSH _0x200007F
	CALL SUBOPT_0x9
	SBIW R30,1
	SUBI R30,LOW(-_gfx_buffer_G100)
	SBCI R31,HIGH(-_gfx_buffer_G100)
	LD   R30,Z
	AND  R30,R20
	MOV  R26,R30
	MOV  R30,R19
	CALL __LSRB12
	CALL SUBOPT_0x12
	MOV  R30,R19
	MOV  R26,R20
	CALL __LSRB12
	COM  R30
	AND  R30,R1
	OR   R21,R30
	CALL SUBOPT_0xE
	ST   -Y,R31
	ST   -Y,R30
	MOV  R26,R21
	CALL _glcd_writemem
	RJMP _0x200007D
_0x200007F:
	RJMP _0x200007B
_0x200007C:
	CPI  R30,LOW(0x9)
	BRNE _0x2000080
	LDI  R21,LOW(0)
	RJMP _0x2000081
_0x2000080:
	CPI  R30,LOW(0xA)
	BRNE _0x2000087
	LDI  R21,LOW(255)
_0x2000081:
	CALL SUBOPT_0x10
	MOV  R26,R30
	MOV  R30,R19
	CALL __LSLB12
	MOV  R21,R30
_0x2000084:
	PUSH R17
	SUBI R17,-1
	LDD  R30,Y+14
	POP  R26
	CP   R26,R30
	BRSH _0x2000086
	CALL SUBOPT_0x11
	ST   -Y,R20
	LDI  R26,LOW(0)
	RCALL _pcd8544_wrmasked_G100
	RJMP _0x2000084
_0x2000086:
	RJMP _0x200007B
_0x2000087:
_0x2000088:
	PUSH R17
	SUBI R17,-1
	LDD  R30,Y+14
	POP  R26
	CP   R26,R30
	BRSH _0x200008A
	CALL SUBOPT_0x13
	MOV  R26,R30
	MOV  R30,R19
	CALL __LSLB12
	ST   -Y,R30
	ST   -Y,R20
	LDD  R26,Y+13
	RCALL _pcd8544_wrmasked_G100
	RJMP _0x2000088
_0x200008A:
_0x200007B:
	LDD  R30,Y+13
	CPI  R30,0
	BRNE _0x200008B
	RJMP _0x200004B
_0x200008B:
	LDD  R26,Y+13
	CPI  R26,LOW(0x8)
	BRSH _0x200008C
	LDD  R30,Y+13
	SUB  R30,R18
	MOV  R21,R30
	LDI  R30,LOW(0)
	RJMP _0x20000A2
_0x200008C:
	MOV  R21,R19
	LDD  R30,Y+13
	SUBI R30,LOW(8)
_0x20000A2:
	STD  Y+13,R30
	LDI  R17,LOW(0)
	LDD  R30,Y+15
	SUBI R30,-LOW(8)
	STD  Y+15,R30
	LDI  R30,LOW(8)
	SUB  R30,R19
	MOV  R18,R30
	LDD  R16,Y+16
	LDD  R30,Y+10
	LDD  R31,Y+10+1
	STD  Y+6,R30
	STD  Y+6+1,R31
_0x2000076:
	MOV  R30,R21
	LDI  R31,0
	SUBI R30,LOW(-__glcd_mask*2)
	SBCI R31,HIGH(-__glcd_mask*2)
	LPM  R20,Z
	LDD  R30,Y+9
	CPI  R30,LOW(0x6)
	BRNE _0x2000091
	CALL SUBOPT_0xD
_0x2000092:
	PUSH R17
	SUBI R17,-1
	LDD  R30,Y+14
	POP  R26
	CP   R26,R30
	BRSH _0x2000094
	CALL SUBOPT_0x9
	SBIW R30,1
	SUBI R30,LOW(-_gfx_buffer_G100)
	SBCI R31,HIGH(-_gfx_buffer_G100)
	LD   R30,Z
	AND  R30,R20
	MOV  R26,R30
	MOV  R30,R18
	CALL __LSLB12
	CALL SUBOPT_0x12
	MOV  R30,R18
	MOV  R26,R20
	CALL __LSLB12
	COM  R30
	AND  R30,R1
	OR   R21,R30
	CALL SUBOPT_0xE
	ST   -Y,R31
	ST   -Y,R30
	MOV  R26,R21
	CALL _glcd_writemem
	RJMP _0x2000092
_0x2000094:
	RJMP _0x2000090
_0x2000091:
	CPI  R30,LOW(0x9)
	BRNE _0x2000095
	LDI  R21,LOW(0)
	RJMP _0x2000096
_0x2000095:
	CPI  R30,LOW(0xA)
	BRNE _0x200009C
	LDI  R21,LOW(255)
_0x2000096:
	CALL SUBOPT_0x10
	MOV  R26,R30
	MOV  R30,R18
	CALL __LSRB12
	MOV  R21,R30
_0x2000099:
	PUSH R17
	SUBI R17,-1
	LDD  R30,Y+14
	POP  R26
	CP   R26,R30
	BRSH _0x200009B
	CALL SUBOPT_0x11
	ST   -Y,R20
	LDI  R26,LOW(0)
	RCALL _pcd8544_wrmasked_G100
	RJMP _0x2000099
_0x200009B:
	RJMP _0x2000090
_0x200009C:
_0x200009D:
	PUSH R17
	SUBI R17,-1
	LDD  R30,Y+14
	POP  R26
	CP   R26,R30
	BRSH _0x200009F
	CALL SUBOPT_0x13
	MOV  R26,R30
	MOV  R30,R18
	CALL __LSRB12
	ST   -Y,R30
	ST   -Y,R20
	LDD  R26,Y+13
	RCALL _pcd8544_wrmasked_G100
	RJMP _0x200009D
_0x200009F:
_0x2000090:
_0x2000075:
	LDD  R30,Y+8
	LDD  R26,Y+10
	LDD  R27,Y+10+1
	LDI  R31,0
	ADD  R30,R26
	ADC  R31,R27
	STD  Y+10,R30
	STD  Y+10+1,R31
	RJMP _0x2000049
_0x200004B:
_0x2140008:
	CALL __LOADLOCR6
	ADIW R28,17
	RET
; .FEND

	.CSEG
_glcd_clipx:
; .FSTART _glcd_clipx
	CALL SUBOPT_0x14
	BRLT _0x2020003
	LDI  R30,LOW(0)
	LDI  R31,HIGH(0)
	JMP  _0x2140002
_0x2020003:
	LD   R26,Y
	LDD  R27,Y+1
	CPI  R26,LOW(0x54)
	LDI  R30,HIGH(0x54)
	CPC  R27,R30
	BRLT _0x2020004
	LDI  R30,LOW(83)
	LDI  R31,HIGH(83)
	JMP  _0x2140002
_0x2020004:
	LD   R30,Y
	LDD  R31,Y+1
	JMP  _0x2140002
; .FEND
_glcd_clipy:
; .FSTART _glcd_clipy
	CALL SUBOPT_0x14
	BRLT _0x2020005
	LDI  R30,LOW(0)
	LDI  R31,HIGH(0)
	JMP  _0x2140002
_0x2020005:
	LD   R26,Y
	LDD  R27,Y+1
	SBIW R26,48
	BRLT _0x2020006
	LDI  R30,LOW(47)
	LDI  R31,HIGH(47)
	JMP  _0x2140002
_0x2020006:
	LD   R30,Y
	LDD  R31,Y+1
	JMP  _0x2140002
; .FEND
_glcd_getcharw_G101:
; .FSTART _glcd_getcharw_G101
	ST   -Y,R27
	ST   -Y,R26
	SBIW R28,3
	CALL SUBOPT_0x15
	MOVW R16,R30
	MOV  R0,R16
	OR   R0,R17
	BRNE _0x202000B
	LDI  R30,LOW(0)
	LDI  R31,HIGH(0)
	RJMP _0x2140007
_0x202000B:
	CALL SUBOPT_0x16
	STD  Y+7,R0
	CALL SUBOPT_0x16
	STD  Y+6,R0
	CALL SUBOPT_0x16
	STD  Y+8,R0
	LDD  R30,Y+11
	LDD  R26,Y+8
	CP   R30,R26
	BRSH _0x202000C
	LDI  R30,LOW(0)
	LDI  R31,HIGH(0)
	RJMP _0x2140007
_0x202000C:
	MOVW R30,R16
	__ADDWRN 16,17,1
	LPM  R21,Z
	LDD  R26,Y+8
	CLR  R27
	CLR  R30
	ADD  R26,R21
	ADC  R27,R30
	LDD  R30,Y+11
	LDI  R31,0
	CP   R30,R26
	CPC  R31,R27
	BRLO _0x202000D
	LDI  R30,LOW(0)
	LDI  R31,HIGH(0)
	RJMP _0x2140007
_0x202000D:
	LDD  R30,Y+6
	LSR  R30
	LSR  R30
	LSR  R30
	MOV  R20,R30
	LDD  R30,Y+6
	ANDI R30,LOW(0x7)
	BREQ _0x202000E
	SUBI R20,-LOW(1)
_0x202000E:
	LDD  R30,Y+7
	CPI  R30,0
	BREQ _0x202000F
	LDD  R26,Y+9
	LDD  R27,Y+9+1
	ST   X,R30
	LDD  R26,Y+8
	LDD  R30,Y+11
	SUB  R30,R26
	LDI  R31,0
	MOVW R26,R30
	LDD  R30,Y+7
	LDI  R31,0
	CALL __MULW12U
	MOVW R26,R30
	MOV  R30,R20
	LDI  R31,0
	CALL __MULW12U
	ADD  R30,R16
	ADC  R31,R17
	RJMP _0x2140007
_0x202000F:
	MOVW R18,R16
	MOV  R30,R21
	LDI  R31,0
	__ADDWRR 16,17,30,31
_0x2020010:
	LDD  R26,Y+8
	SUBI R26,-LOW(1)
	STD  Y+8,R26
	SUBI R26,LOW(1)
	LDD  R30,Y+11
	CP   R26,R30
	BRSH _0x2020012
	MOVW R30,R18
	__ADDWRN 18,19,1
	LPM  R26,Z
	LDI  R27,0
	MOV  R30,R20
	LDI  R31,0
	CALL __MULW12U
	__ADDWRR 16,17,30,31
	RJMP _0x2020010
_0x2020012:
	MOVW R30,R18
	LPM  R30,Z
	LDD  R26,Y+9
	LDD  R27,Y+9+1
	ST   X,R30
	MOVW R30,R16
_0x2140007:
	CALL __LOADLOCR6
	ADIW R28,12
	RET
; .FEND
_glcd_new_line_G101:
; .FSTART _glcd_new_line_G101
	LDI  R30,LOW(0)
	__PUTB1MN _glcd_state,2
	__GETB2MN _glcd_state,3
	CLR  R27
	CALL SUBOPT_0x17
	LDI  R31,0
	ADD  R26,R30
	ADC  R27,R31
	__GETB1MN _glcd_state,7
	LDI  R31,0
	ADD  R26,R30
	ADC  R27,R31
	RCALL _glcd_clipy
	__PUTB1MN _glcd_state,3
	RET
; .FEND
_glcd_putchar:
; .FSTART _glcd_putchar
	ST   -Y,R26
	SBIW R28,1
	CALL SUBOPT_0x15
	SBIW R30,0
	BRNE PC+2
	RJMP _0x202001F
	LDD  R26,Y+7
	CPI  R26,LOW(0xA)
	BRNE _0x2020020
	RJMP _0x2020021
_0x2020020:
	LDD  R30,Y+7
	ST   -Y,R30
	MOVW R26,R28
	ADIW R26,7
	RCALL _glcd_getcharw_G101
	MOVW R20,R30
	SBIW R30,0
	BRNE _0x2020022
	RJMP _0x2140006
_0x2020022:
	__GETB1MN _glcd_state,6
	LDD  R26,Y+6
	ADD  R30,R26
	MOV  R19,R30
	__GETB2MN _glcd_state,2
	CLR  R27
	LDI  R31,0
	ADD  R30,R26
	ADC  R31,R27
	MOVW R16,R30
	__CPWRN 16,17,85
	BRLO _0x2020023
	MOV  R16,R19
	CLR  R17
	RCALL _glcd_new_line_G101
_0x2020023:
	__GETB1MN _glcd_state,2
	ST   -Y,R30
	__GETB1MN _glcd_state,3
	ST   -Y,R30
	LDD  R30,Y+8
	ST   -Y,R30
	CALL SUBOPT_0x17
	ST   -Y,R30
	LDI  R30,LOW(1)
	ST   -Y,R30
	ST   -Y,R21
	ST   -Y,R20
	LDI  R26,LOW(7)
	RCALL _glcd_block
	__GETB1MN _glcd_state,2
	LDD  R26,Y+6
	ADD  R30,R26
	ST   -Y,R30
	__GETB1MN _glcd_state,3
	ST   -Y,R30
	__GETB1MN _glcd_state,6
	ST   -Y,R30
	CALL SUBOPT_0x17
	CALL SUBOPT_0x18
	__GETB1MN _glcd_state,2
	ST   -Y,R30
	__GETB2MN _glcd_state,3
	CALL SUBOPT_0x17
	ADD  R30,R26
	ST   -Y,R30
	ST   -Y,R19
	__GETB1MN _glcd_state,7
	CALL SUBOPT_0x18
	LDI  R30,LOW(84)
	LDI  R31,HIGH(84)
	CP   R30,R16
	CPC  R31,R17
	BRNE _0x2020024
_0x2020021:
	RCALL _glcd_new_line_G101
	RJMP _0x2140006
_0x2020024:
_0x202001F:
	__PUTBMRN _glcd_state,2,16
_0x2140006:
	CALL __LOADLOCR6
	ADIW R28,8
	RET
; .FEND
_glcd_outtextxy:
; .FSTART _glcd_outtextxy
	ST   -Y,R27
	ST   -Y,R26
	ST   -Y,R17
	LDD  R30,Y+4
	ST   -Y,R30
	LDD  R26,Y+4
	RCALL _glcd_moveto
_0x2020025:
	CALL SUBOPT_0x19
	BREQ _0x2020027
	MOV  R26,R17
	RCALL _glcd_putchar
	RJMP _0x2020025
_0x2020027:
	LDD  R17,Y+0
	JMP  _0x2140003
; .FEND
_glcd_outtext:
; .FSTART _glcd_outtext
	ST   -Y,R27
	ST   -Y,R26
	ST   -Y,R17
_0x202002E:
	CALL SUBOPT_0x19
	BREQ _0x2020030
	MOV  R26,R17
	RCALL _glcd_putchar
	RJMP _0x202002E
_0x2020030:
	LDD  R17,Y+0
	JMP  _0x2140001
; .FEND
_glcd_moveto:
; .FSTART _glcd_moveto
	ST   -Y,R26
	LDD  R26,Y+1
	CLR  R27
	RCALL _glcd_clipx
	__PUTB1MN _glcd_state,2
	LD   R26,Y
	CLR  R27
	RCALL _glcd_clipy
	__PUTB1MN _glcd_state,3
	JMP  _0x2140002
; .FEND
	#ifndef __SLEEP_DEFINED__
	#define __SLEEP_DEFINED__
	.EQU __se_bit=0x20
	.EQU __sm_mask=0x1C
	.EQU __sm_powerdown=0x10
	.EQU __sm_powersave=0x18
	.EQU __sm_standby=0x14
	.EQU __sm_ext_standby=0x1C
	.EQU __sm_adc_noise_red=0x08
	.SET power_ctrl_reg=mcucr
	#endif

	.DSEG

	.CSEG
__lcd_write_nibble_G103:
; .FSTART __lcd_write_nibble_G103
	ST   -Y,R26
	LD   R30,Y
	ANDI R30,LOW(0x10)
	BREQ _0x2060004
	SBI  0x1B,3
	RJMP _0x2060005
_0x2060004:
	CBI  0x1B,3
_0x2060005:
	LD   R30,Y
	ANDI R30,LOW(0x20)
	BREQ _0x2060006
	SBI  0x1B,4
	RJMP _0x2060007
_0x2060006:
	CBI  0x1B,4
_0x2060007:
	LD   R30,Y
	ANDI R30,LOW(0x40)
	BREQ _0x2060008
	SBI  0x1B,5
	RJMP _0x2060009
_0x2060008:
	CBI  0x1B,5
_0x2060009:
	LD   R30,Y
	ANDI R30,LOW(0x80)
	BREQ _0x206000A
	SBI  0x1B,6
	RJMP _0x206000B
_0x206000A:
	CBI  0x1B,6
_0x206000B:
	__DELAY_USB 13
	SBI  0x1B,2
	__DELAY_USB 13
	CBI  0x1B,2
	__DELAY_USB 13
	RJMP _0x2140005
; .FEND
__lcd_write_data:
; .FSTART __lcd_write_data
	ST   -Y,R26
	LD   R26,Y
	RCALL __lcd_write_nibble_G103
    ld    r30,y
    swap  r30
    st    y,r30
	LD   R26,Y
	RCALL __lcd_write_nibble_G103
	__DELAY_USB 133
	RJMP _0x2140005
; .FEND
_lcd_gotoxy:
; .FSTART _lcd_gotoxy
	ST   -Y,R26
	LD   R30,Y
	LDI  R31,0
	SUBI R30,LOW(-__base_y_G103)
	SBCI R31,HIGH(-__base_y_G103)
	LD   R30,Z
	LDD  R26,Y+1
	ADD  R26,R30
	RCALL __lcd_write_data
	LDD  R30,Y+1
	STS  __lcd_x,R30
	LD   R30,Y
	STS  __lcd_y,R30
	JMP  _0x2140002
; .FEND
_lcd_clear:
; .FSTART _lcd_clear
	LDI  R26,LOW(2)
	CALL SUBOPT_0x1A
	LDI  R26,LOW(12)
	RCALL __lcd_write_data
	LDI  R26,LOW(1)
	CALL SUBOPT_0x1A
	LDI  R30,LOW(0)
	STS  __lcd_y,R30
	STS  __lcd_x,R30
	RET
; .FEND
_lcd_putchar:
; .FSTART _lcd_putchar
	ST   -Y,R26
	LD   R26,Y
	CPI  R26,LOW(0xA)
	BREQ _0x2060011
	LDS  R30,__lcd_maxx
	LDS  R26,__lcd_x
	CP   R26,R30
	BRLO _0x2060010
_0x2060011:
	LDI  R30,LOW(0)
	ST   -Y,R30
	LDS  R26,__lcd_y
	SUBI R26,-LOW(1)
	STS  __lcd_y,R26
	RCALL _lcd_gotoxy
	LD   R26,Y
	CPI  R26,LOW(0xA)
	BRNE _0x2060013
	RJMP _0x2140005
_0x2060013:
_0x2060010:
	LDS  R30,__lcd_x
	SUBI R30,-LOW(1)
	STS  __lcd_x,R30
	SBI  0x1B,0
	LD   R26,Y
	RCALL __lcd_write_data
	CBI  0x1B,0
	RJMP _0x2140005
; .FEND
_lcd_puts:
; .FSTART _lcd_puts
	ST   -Y,R27
	ST   -Y,R26
	ST   -Y,R17
_0x2060014:
	CALL SUBOPT_0x19
	BREQ _0x2060016
	MOV  R26,R17
	RCALL _lcd_putchar
	RJMP _0x2060014
_0x2060016:
	LDD  R17,Y+0
	JMP  _0x2140001
; .FEND
_lcd_putsf:
; .FSTART _lcd_putsf
	ST   -Y,R27
	ST   -Y,R26
	ST   -Y,R17
_0x2060017:
	LDD  R30,Y+1
	LDD  R31,Y+1+1
	ADIW R30,1
	STD  Y+1,R30
	STD  Y+1+1,R31
	SBIW R30,1
	LPM  R30,Z
	MOV  R17,R30
	CPI  R30,0
	BREQ _0x2060019
	MOV  R26,R17
	RCALL _lcd_putchar
	RJMP _0x2060017
_0x2060019:
	LDD  R17,Y+0
	JMP  _0x2140001
; .FEND
_lcd_init:
; .FSTART _lcd_init
	ST   -Y,R26
	SBI  0x1A,3
	SBI  0x1A,4
	SBI  0x1A,5
	SBI  0x1A,6
	SBI  0x1A,2
	SBI  0x1A,0
	SBI  0x1A,1
	CBI  0x1B,2
	CBI  0x1B,0
	CBI  0x1B,1
	LD   R30,Y
	STS  __lcd_maxx,R30
	SUBI R30,-LOW(128)
	__PUTB1MN __base_y_G103,2
	LD   R30,Y
	SUBI R30,-LOW(192)
	__PUTB1MN __base_y_G103,3
	LDI  R26,LOW(20)
	LDI  R27,0
	CALL _delay_ms
	CALL SUBOPT_0x1B
	CALL SUBOPT_0x1B
	CALL SUBOPT_0x1B
	LDI  R26,LOW(32)
	RCALL __lcd_write_nibble_G103
	__DELAY_USW 200
	LDI  R26,LOW(40)
	RCALL __lcd_write_data
	LDI  R26,LOW(4)
	RCALL __lcd_write_data
	LDI  R26,LOW(133)
	RCALL __lcd_write_data
	LDI  R26,LOW(6)
	RCALL __lcd_write_data
	RCALL _lcd_clear
_0x2140005:
	ADIW R28,1
	RET
; .FEND
	#ifndef __SLEEP_DEFINED__
	#define __SLEEP_DEFINED__
	.EQU __se_bit=0x20
	.EQU __sm_mask=0x1C
	.EQU __sm_powerdown=0x10
	.EQU __sm_powersave=0x18
	.EQU __sm_standby=0x14
	.EQU __sm_ext_standby=0x1C
	.EQU __sm_adc_noise_red=0x08
	.SET power_ctrl_reg=mcucr
	#endif

	.CSEG
_put_buff_G104:
; .FSTART _put_buff_G104
	ST   -Y,R27
	ST   -Y,R26
	ST   -Y,R17
	ST   -Y,R16
	LDD  R26,Y+2
	LDD  R27,Y+2+1
	ADIW R26,2
	CALL __GETW1P
	SBIW R30,0
	BREQ _0x2080010
	LDD  R26,Y+2
	LDD  R27,Y+2+1
	ADIW R26,4
	CALL __GETW1P
	MOVW R16,R30
	SBIW R30,0
	BREQ _0x2080012
	__CPWRN 16,17,2
	BRLO _0x2080013
	MOVW R30,R16
	SBIW R30,1
	MOVW R16,R30
	__PUTW1SNS 2,4
_0x2080012:
	LDD  R26,Y+2
	LDD  R27,Y+2+1
	ADIW R26,2
	CALL SUBOPT_0x3
	SBIW R30,1
	LDD  R26,Y+4
	STD  Z+0,R26
_0x2080013:
	LDD  R26,Y+2
	LDD  R27,Y+2+1
	CALL __GETW1P
	TST  R31
	BRMI _0x2080014
	CALL SUBOPT_0x3
_0x2080014:
	RJMP _0x2080015
_0x2080010:
	LDD  R26,Y+2
	LDD  R27,Y+2+1
	LDI  R30,LOW(65535)
	LDI  R31,HIGH(65535)
	ST   X+,R30
	ST   X,R31
_0x2080015:
	LDD  R17,Y+1
	LDD  R16,Y+0
	JMP  _0x2140003
; .FEND
__print_G104:
; .FSTART __print_G104
	ST   -Y,R27
	ST   -Y,R26
	SBIW R28,6
	CALL __SAVELOCR6
	LDI  R17,0
	LDD  R26,Y+12
	LDD  R27,Y+12+1
	LDI  R30,LOW(0)
	LDI  R31,HIGH(0)
	ST   X+,R30
	ST   X,R31
_0x2080016:
	LDD  R30,Y+18
	LDD  R31,Y+18+1
	ADIW R30,1
	STD  Y+18,R30
	STD  Y+18+1,R31
	SBIW R30,1
	LPM  R30,Z
	MOV  R18,R30
	CPI  R30,0
	BRNE PC+2
	RJMP _0x2080018
	MOV  R30,R17
	CPI  R30,0
	BRNE _0x208001C
	CPI  R18,37
	BRNE _0x208001D
	LDI  R17,LOW(1)
	RJMP _0x208001E
_0x208001D:
	CALL SUBOPT_0x1C
_0x208001E:
	RJMP _0x208001B
_0x208001C:
	CPI  R30,LOW(0x1)
	BRNE _0x208001F
	CPI  R18,37
	BRNE _0x2080020
	CALL SUBOPT_0x1C
	RJMP _0x20800CC
_0x2080020:
	LDI  R17,LOW(2)
	LDI  R20,LOW(0)
	LDI  R16,LOW(0)
	CPI  R18,45
	BRNE _0x2080021
	LDI  R16,LOW(1)
	RJMP _0x208001B
_0x2080021:
	CPI  R18,43
	BRNE _0x2080022
	LDI  R20,LOW(43)
	RJMP _0x208001B
_0x2080022:
	CPI  R18,32
	BRNE _0x2080023
	LDI  R20,LOW(32)
	RJMP _0x208001B
_0x2080023:
	RJMP _0x2080024
_0x208001F:
	CPI  R30,LOW(0x2)
	BRNE _0x2080025
_0x2080024:
	LDI  R21,LOW(0)
	LDI  R17,LOW(3)
	CPI  R18,48
	BRNE _0x2080026
	ORI  R16,LOW(128)
	RJMP _0x208001B
_0x2080026:
	RJMP _0x2080027
_0x2080025:
	CPI  R30,LOW(0x3)
	BREQ PC+2
	RJMP _0x208001B
_0x2080027:
	CPI  R18,48
	BRLO _0x208002A
	CPI  R18,58
	BRLO _0x208002B
_0x208002A:
	RJMP _0x2080029
_0x208002B:
	LDI  R26,LOW(10)
	MUL  R21,R26
	MOV  R21,R0
	MOV  R30,R18
	SUBI R30,LOW(48)
	ADD  R21,R30
	RJMP _0x208001B
_0x2080029:
	MOV  R30,R18
	CPI  R30,LOW(0x63)
	BRNE _0x208002F
	CALL SUBOPT_0x1D
	LDD  R30,Y+16
	LDD  R31,Y+16+1
	LDD  R26,Z+4
	ST   -Y,R26
	CALL SUBOPT_0x1E
	RJMP _0x2080030
_0x208002F:
	CPI  R30,LOW(0x73)
	BRNE _0x2080032
	CALL SUBOPT_0x1D
	CALL SUBOPT_0x1F
	CALL _strlen
	MOV  R17,R30
	RJMP _0x2080033
_0x2080032:
	CPI  R30,LOW(0x70)
	BRNE _0x2080035
	CALL SUBOPT_0x1D
	CALL SUBOPT_0x1F
	CALL _strlenf
	MOV  R17,R30
	ORI  R16,LOW(8)
_0x2080033:
	ORI  R16,LOW(2)
	ANDI R16,LOW(127)
	LDI  R19,LOW(0)
	RJMP _0x2080036
_0x2080035:
	CPI  R30,LOW(0x64)
	BREQ _0x2080039
	CPI  R30,LOW(0x69)
	BRNE _0x208003A
_0x2080039:
	ORI  R16,LOW(4)
	RJMP _0x208003B
_0x208003A:
	CPI  R30,LOW(0x75)
	BRNE _0x208003C
_0x208003B:
	LDI  R30,LOW(_tbl10_G104*2)
	LDI  R31,HIGH(_tbl10_G104*2)
	STD  Y+6,R30
	STD  Y+6+1,R31
	LDI  R17,LOW(5)
	RJMP _0x208003D
_0x208003C:
	CPI  R30,LOW(0x58)
	BRNE _0x208003F
	ORI  R16,LOW(8)
	RJMP _0x2080040
_0x208003F:
	CPI  R30,LOW(0x78)
	BREQ PC+2
	RJMP _0x2080071
_0x2080040:
	LDI  R30,LOW(_tbl16_G104*2)
	LDI  R31,HIGH(_tbl16_G104*2)
	STD  Y+6,R30
	STD  Y+6+1,R31
	LDI  R17,LOW(4)
_0x208003D:
	SBRS R16,2
	RJMP _0x2080042
	CALL SUBOPT_0x1D
	CALL SUBOPT_0x20
	LDD  R26,Y+11
	TST  R26
	BRPL _0x2080043
	LDD  R30,Y+10
	LDD  R31,Y+10+1
	CALL __ANEGW1
	STD  Y+10,R30
	STD  Y+10+1,R31
	LDI  R20,LOW(45)
_0x2080043:
	CPI  R20,0
	BREQ _0x2080044
	SUBI R17,-LOW(1)
	RJMP _0x2080045
_0x2080044:
	ANDI R16,LOW(251)
_0x2080045:
	RJMP _0x2080046
_0x2080042:
	CALL SUBOPT_0x1D
	CALL SUBOPT_0x20
_0x2080046:
_0x2080036:
	SBRC R16,0
	RJMP _0x2080047
_0x2080048:
	CP   R17,R21
	BRSH _0x208004A
	SBRS R16,7
	RJMP _0x208004B
	SBRS R16,2
	RJMP _0x208004C
	ANDI R16,LOW(251)
	MOV  R18,R20
	SUBI R17,LOW(1)
	RJMP _0x208004D
_0x208004C:
	LDI  R18,LOW(48)
_0x208004D:
	RJMP _0x208004E
_0x208004B:
	LDI  R18,LOW(32)
_0x208004E:
	CALL SUBOPT_0x1C
	SUBI R21,LOW(1)
	RJMP _0x2080048
_0x208004A:
_0x2080047:
	MOV  R19,R17
	SBRS R16,1
	RJMP _0x208004F
_0x2080050:
	CPI  R19,0
	BREQ _0x2080052
	SBRS R16,3
	RJMP _0x2080053
	LDD  R30,Y+6
	LDD  R31,Y+6+1
	LPM  R18,Z+
	STD  Y+6,R30
	STD  Y+6+1,R31
	RJMP _0x2080054
_0x2080053:
	LDD  R26,Y+6
	LDD  R27,Y+6+1
	LD   R18,X+
	STD  Y+6,R26
	STD  Y+6+1,R27
_0x2080054:
	CALL SUBOPT_0x1C
	CPI  R21,0
	BREQ _0x2080055
	SUBI R21,LOW(1)
_0x2080055:
	SUBI R19,LOW(1)
	RJMP _0x2080050
_0x2080052:
	RJMP _0x2080056
_0x208004F:
_0x2080058:
	LDI  R18,LOW(48)
	LDD  R30,Y+6
	LDD  R31,Y+6+1
	CALL __GETW1PF
	STD  Y+8,R30
	STD  Y+8+1,R31
	LDD  R30,Y+6
	LDD  R31,Y+6+1
	ADIW R30,2
	STD  Y+6,R30
	STD  Y+6+1,R31
_0x208005A:
	LDD  R30,Y+8
	LDD  R31,Y+8+1
	LDD  R26,Y+10
	LDD  R27,Y+10+1
	CP   R26,R30
	CPC  R27,R31
	BRLO _0x208005C
	SUBI R18,-LOW(1)
	LDD  R26,Y+8
	LDD  R27,Y+8+1
	LDD  R30,Y+10
	LDD  R31,Y+10+1
	SUB  R30,R26
	SBC  R31,R27
	STD  Y+10,R30
	STD  Y+10+1,R31
	RJMP _0x208005A
_0x208005C:
	CPI  R18,58
	BRLO _0x208005D
	SBRS R16,3
	RJMP _0x208005E
	SUBI R18,-LOW(7)
	RJMP _0x208005F
_0x208005E:
	SUBI R18,-LOW(39)
_0x208005F:
_0x208005D:
	SBRC R16,4
	RJMP _0x2080061
	CPI  R18,49
	BRSH _0x2080063
	LDD  R26,Y+8
	LDD  R27,Y+8+1
	SBIW R26,1
	BRNE _0x2080062
_0x2080063:
	RJMP _0x20800CD
_0x2080062:
	CP   R21,R19
	BRLO _0x2080067
	SBRS R16,0
	RJMP _0x2080068
_0x2080067:
	RJMP _0x2080066
_0x2080068:
	LDI  R18,LOW(32)
	SBRS R16,7
	RJMP _0x2080069
	LDI  R18,LOW(48)
_0x20800CD:
	ORI  R16,LOW(16)
	SBRS R16,2
	RJMP _0x208006A
	ANDI R16,LOW(251)
	ST   -Y,R20
	CALL SUBOPT_0x1E
	CPI  R21,0
	BREQ _0x208006B
	SUBI R21,LOW(1)
_0x208006B:
_0x208006A:
_0x2080069:
_0x2080061:
	CALL SUBOPT_0x1C
	CPI  R21,0
	BREQ _0x208006C
	SUBI R21,LOW(1)
_0x208006C:
_0x2080066:
	SUBI R19,LOW(1)
	LDD  R26,Y+8
	LDD  R27,Y+8+1
	SBIW R26,2
	BRLO _0x2080059
	RJMP _0x2080058
_0x2080059:
_0x2080056:
	SBRS R16,0
	RJMP _0x208006D
_0x208006E:
	CPI  R21,0
	BREQ _0x2080070
	SUBI R21,LOW(1)
	LDI  R30,LOW(32)
	ST   -Y,R30
	CALL SUBOPT_0x1E
	RJMP _0x208006E
_0x2080070:
_0x208006D:
_0x2080071:
_0x2080030:
_0x20800CC:
	LDI  R17,LOW(0)
_0x208001B:
	RJMP _0x2080016
_0x2080018:
	LDD  R26,Y+12
	LDD  R27,Y+12+1
	CALL __GETW1P
	CALL __LOADLOCR6
	ADIW R28,20
	RET
; .FEND
_sprintf:
; .FSTART _sprintf
	PUSH R15
	MOV  R15,R24
	SBIW R28,6
	CALL __SAVELOCR4
	CALL SUBOPT_0x21
	SBIW R30,0
	BRNE _0x2080072
	LDI  R30,LOW(65535)
	LDI  R31,HIGH(65535)
	RJMP _0x2140004
_0x2080072:
	MOVW R26,R28
	ADIW R26,6
	CALL __ADDW2R15
	MOVW R16,R26
	CALL SUBOPT_0x21
	STD  Y+6,R30
	STD  Y+6+1,R31
	LDI  R30,LOW(0)
	STD  Y+8,R30
	STD  Y+8+1,R30
	MOVW R26,R28
	ADIW R26,10
	CALL __ADDW2R15
	CALL __GETW1P
	ST   -Y,R31
	ST   -Y,R30
	ST   -Y,R17
	ST   -Y,R16
	LDI  R30,LOW(_put_buff_G104)
	LDI  R31,HIGH(_put_buff_G104)
	ST   -Y,R31
	ST   -Y,R30
	MOVW R26,R28
	ADIW R26,10
	RCALL __print_G104
	MOVW R18,R30
	LDD  R26,Y+6
	LDD  R27,Y+6+1
	LDI  R30,LOW(0)
	ST   X,R30
	MOVW R30,R18
_0x2140004:
	CALL __LOADLOCR4
	ADIW R28,10
	POP  R15
	RET
; .FEND

	.CSEG
_atoi:
; .FSTART _atoi
	ST   -Y,R27
	ST   -Y,R26
   	ldd  r27,y+1
   	ld   r26,y
__atoi0:
   	ld   r30,x
        mov  r24,r26
	MOV  R26,R30
	CALL _isspace
        mov  r26,r24
   	tst  r30
   	breq __atoi1
   	adiw r26,1
   	rjmp __atoi0
__atoi1:
   	clt
   	ld   r30,x
   	cpi  r30,'-'
   	brne __atoi2
   	set
   	rjmp __atoi3
__atoi2:
   	cpi  r30,'+'
   	brne __atoi4
__atoi3:
   	adiw r26,1
__atoi4:
   	clr  r22
   	clr  r23
__atoi5:
   	ld   r30,x
        mov  r24,r26
	MOV  R26,R30
	CALL _isdigit
        mov  r26,r24
   	tst  r30
   	breq __atoi6
   	movw r30,r22
   	lsl  r22
   	rol  r23
   	lsl  r22
   	rol  r23
   	add  r22,r30
   	adc  r23,r31
   	lsl  r22
   	rol  r23
   	ld   r30,x+
   	clr  r31
   	subi r30,'0'
   	add  r22,r30
   	adc  r23,r31
   	rjmp __atoi5
__atoi6:
   	movw r30,r22
   	brtc __atoi7
   	com  r30
   	com  r31
   	adiw r30,1
__atoi7:
   	adiw r28,2
   	ret
; .FEND

	.DSEG

	.CSEG

	.CSEG
_memset:
; .FSTART _memset
	ST   -Y,R27
	ST   -Y,R26
    ldd  r27,y+1
    ld   r26,y
    adiw r26,0
    breq memset1
    ldd  r31,y+4
    ldd  r30,y+3
    ldd  r22,y+2
memset0:
    st   z+,r22
    sbiw r26,1
    brne memset0
memset1:
    ldd  r30,y+3
    ldd  r31,y+4
_0x2140003:
	ADIW R28,5
	RET
; .FEND
_strlen:
; .FSTART _strlen
	ST   -Y,R27
	ST   -Y,R26
    ld   r26,y+
    ld   r27,y+
    clr  r30
    clr  r31
strlen0:
    ld   r22,x+
    tst  r22
    breq strlen1
    adiw r30,1
    rjmp strlen0
strlen1:
    ret
; .FEND
_strlenf:
; .FSTART _strlenf
	ST   -Y,R27
	ST   -Y,R26
    clr  r26
    clr  r27
    ld   r30,y+
    ld   r31,y+
strlenf0:
	lpm  r0,z+
    tst  r0
    breq strlenf1
    adiw r26,1
    rjmp strlenf0
strlenf1:
    movw r30,r26
    ret
; .FEND

	.CSEG
_glcd_getmask:
; .FSTART _glcd_getmask
	ST   -Y,R26
	LD   R30,Y
	LDI  R31,0
	SUBI R30,LOW(-__glcd_mask*2)
	SBCI R31,HIGH(-__glcd_mask*2)
	LPM  R26,Z
	LDD  R30,Y+1
	CALL __LSLB12
_0x2140002:
	ADIW R28,2
	RET
; .FEND
_glcd_mappixcolor1bit:
; .FSTART _glcd_mappixcolor1bit
	ST   -Y,R26
	ST   -Y,R17
	LDD  R30,Y+1
	CPI  R30,LOW(0x7)
	BREQ _0x20E0007
	CPI  R30,LOW(0xA)
	BRNE _0x20E0008
_0x20E0007:
	LDS  R17,_glcd_state
	RJMP _0x20E0009
_0x20E0008:
	CPI  R30,LOW(0x9)
	BRNE _0x20E000B
	__GETBRMN 17,_glcd_state,1
	RJMP _0x20E0009
_0x20E000B:
	CPI  R30,LOW(0x8)
	BRNE _0x20E0005
	__GETBRMN 17,_glcd_state,16
_0x20E0009:
	__GETB1MN _glcd_state,1
	CPI  R30,0
	BREQ _0x20E000E
	CPI  R17,0
	BREQ _0x20E000F
	LDI  R30,LOW(255)
	LDD  R17,Y+0
	RJMP _0x2140001
_0x20E000F:
	LDD  R30,Y+2
	COM  R30
	LDD  R17,Y+0
	RJMP _0x2140001
_0x20E000E:
	CPI  R17,0
	BRNE _0x20E0011
	LDI  R30,LOW(0)
	LDD  R17,Y+0
	RJMP _0x2140001
_0x20E0011:
_0x20E0005:
	LDD  R30,Y+2
	LDD  R17,Y+0
	RJMP _0x2140001
; .FEND
_glcd_readmem:
; .FSTART _glcd_readmem
	ST   -Y,R27
	ST   -Y,R26
	LDD  R30,Y+2
	CPI  R30,LOW(0x1)
	BRNE _0x20E0015
	LD   R30,Y
	LDD  R31,Y+1
	LPM  R30,Z
	RJMP _0x2140001
_0x20E0015:
	CPI  R30,LOW(0x2)
	BRNE _0x20E0016
	LD   R26,Y
	LDD  R27,Y+1
	CALL __EEPROMRDB
	RJMP _0x2140001
_0x20E0016:
	CPI  R30,LOW(0x3)
	BRNE _0x20E0018
	LD   R26,Y
	LDD  R27,Y+1
	__CALL1MN _glcd_state,25
	RJMP _0x2140001
_0x20E0018:
	LD   R26,Y
	LDD  R27,Y+1
	LD   R30,X
_0x2140001:
	ADIW R28,3
	RET
; .FEND
_glcd_writemem:
; .FSTART _glcd_writemem
	ST   -Y,R26
	LDD  R30,Y+3
	CPI  R30,0
	BRNE _0x20E001C
	LD   R30,Y
	LDD  R26,Y+1
	LDD  R27,Y+1+1
	ST   X,R30
	RJMP _0x20E001B
_0x20E001C:
	CPI  R30,LOW(0x2)
	BRNE _0x20E001D
	LD   R30,Y
	LDD  R26,Y+1
	LDD  R27,Y+1+1
	CALL __EEPROMWRB
	RJMP _0x20E001B
_0x20E001D:
	CPI  R30,LOW(0x3)
	BRNE _0x20E001B
	LDD  R30,Y+1
	LDD  R31,Y+1+1
	ST   -Y,R31
	ST   -Y,R30
	LDD  R26,Y+2
	__CALL1MN _glcd_state,27
_0x20E001B:
	ADIW R28,4
	RET
; .FEND

	.CSEG

	.CSEG
_isdigit:
; .FSTART _isdigit
	ST   -Y,R26
    ldi  r30,1
    ld   r31,y+
    cpi  r31,'0'
    brlo isdigit0
    cpi  r31,'9'+1
    brlo isdigit1
isdigit0:
    clr  r30
isdigit1:
    ret
; .FEND
_isspace:
; .FSTART _isspace
	ST   -Y,R26
    ldi  r30,1
    ld   r31,y+
    cpi  r31,' '
    breq isspace1
    cpi  r31,9
    brlo isspace0
    cpi  r31,13+1
    brlo isspace1
isspace0:
    clr  r30
isspace1:
    ret
; .FEND

	.DSEG
_glcd_state:
	.BYTE 0x1D
_keypad:
	.BYTE 0x12
_input_buffer:
	.BYTE 0x10
_number_str:
	.BYTE 0x6
_say_xong:
	.BYTE 0x1
_counter:
	.BYTE 0x2
_temp_str:
	.BYTE 0x4
_gfx_addr_G100:
	.BYTE 0x2
_gfx_buffer_G100:
	.BYTE 0x1F8
__base_y_G103:
	.BYTE 0x4
__lcd_x:
	.BYTE 0x1
__lcd_y:
	.BYTE 0x1
__lcd_maxx:
	.BYTE 0x1
__seed_G105:
	.BYTE 0x4

	.CSEG
;OPTIMIZER ADDED SUBROUTINE, CALLED 3 TIMES, CODE SIZE REDUCTION:41 WORDS
SUBOPT_0x0:
	MOVW R30,R6
	ADIW R30,1
	MOVW R6,R30
	SBIW R30,1
	SUBI R30,LOW(-_input_buffer)
	SBCI R31,HIGH(-_input_buffer)
	MOVW R22,R30
	__MULBNWRU 20,21,6
	SUBI R30,LOW(-_keypad)
	SBCI R31,HIGH(-_keypad)
	MOVW R26,R30
	MOVW R30,R18
	LSL  R30
	ROL  R31
	ADD  R26,R30
	ADC  R27,R31
	LD   R30,X
	SUBI R30,-LOW(48)
	MOVW R26,R22
	ST   X,R30
	RET

;OPTIMIZER ADDED SUBROUTINE, CALLED 4 TIMES, CODE SIZE REDUCTION:9 WORDS
SUBOPT_0x1:
	ST   -Y,R31
	ST   -Y,R30
	__POINTW1FN _0x0,0
	ST   -Y,R31
	ST   -Y,R30
	RET

;OPTIMIZER ADDED SUBROUTINE, CALLED 4 TIMES, CODE SIZE REDUCTION:9 WORDS
SUBOPT_0x2:
	CALL __PUTPARD1
	LDI  R24,4
	CALL _sprintf
	ADIW R28,8
	RET

;OPTIMIZER ADDED SUBROUTINE, CALLED 7 TIMES, CODE SIZE REDUCTION:15 WORDS
SUBOPT_0x3:
	LD   R30,X+
	LD   R31,X+
	ADIW R30,1
	ST   -X,R31
	ST   -X,R30
	RET

;OPTIMIZER ADDED SUBROUTINE, CALLED 2 TIMES, CODE SIZE REDUCTION:1 WORDS
SUBOPT_0x4:
	CALL _lcd_gotoxy
	__POINTW2FN _0x0,8
	JMP  _lcd_putsf

;OPTIMIZER ADDED SUBROUTINE, CALLED 3 TIMES, CODE SIZE REDUCTION:11 WORDS
SUBOPT_0x5:
	LDI  R27,0
	LDI  R30,LOW(10)
	LDI  R31,HIGH(10)
	CALL __DIVW21
	SUBI R30,-LOW(48)
	MOV  R26,R30
	JMP  _lcd_putchar

;OPTIMIZER ADDED SUBROUTINE, CALLED 3 TIMES, CODE SIZE REDUCTION:11 WORDS
SUBOPT_0x6:
	CLR  R27
	LDI  R30,LOW(10)
	LDI  R31,HIGH(10)
	CALL __MODW21
	SUBI R30,-LOW(48)
	MOV  R26,R30
	JMP  _lcd_putchar

;OPTIMIZER ADDED SUBROUTINE, CALLED 3 TIMES, CODE SIZE REDUCTION:5 WORDS
SUBOPT_0x7:
	CALL _glcd_outtext
	LDI  R30,LOW(_temp_str)
	LDI  R31,HIGH(_temp_str)
	RJMP SUBOPT_0x1

;OPTIMIZER ADDED SUBROUTINE, CALLED 3 TIMES, CODE SIZE REDUCTION:3 WORDS
SUBOPT_0x8:
	CLR  R31
	CLR  R22
	CLR  R23
	RJMP SUBOPT_0x2

;OPTIMIZER ADDED SUBROUTINE, CALLED 4 TIMES, CODE SIZE REDUCTION:3 WORDS
SUBOPT_0x9:
	LDI  R26,LOW(_gfx_addr_G100)
	LDI  R27,HIGH(_gfx_addr_G100)
	RJMP SUBOPT_0x3

;OPTIMIZER ADDED SUBROUTINE, CALLED 3 TIMES, CODE SIZE REDUCTION:1 WORDS
SUBOPT_0xA:
	STS  100,R30
	LDS  R30,101
	RET

;OPTIMIZER ADDED SUBROUTINE, CALLED 3 TIMES, CODE SIZE REDUCTION:1 WORDS
SUBOPT_0xB:
	ADD  R30,R26
	ADC  R31,R27
	STD  Y+6,R30
	STD  Y+6+1,R31
	RET

;OPTIMIZER ADDED SUBROUTINE, CALLED 2 TIMES, CODE SIZE REDUCTION:8 WORDS
SUBOPT_0xC:
	LDD  R30,Y+12
	ST   -Y,R30
	LDD  R30,Y+7
	LDD  R31,Y+7+1
	ADIW R30,1
	STD  Y+7,R30
	STD  Y+7+1,R31
	SBIW R30,1
	ST   -Y,R31
	ST   -Y,R30
	LDI  R26,LOW(0)
	JMP  _glcd_writemem

;OPTIMIZER ADDED SUBROUTINE, CALLED 3 TIMES, CODE SIZE REDUCTION:1 WORDS
SUBOPT_0xD:
	ST   -Y,R16
	LDD  R26,Y+16
	JMP  _pcd8544_setaddr_G100

;OPTIMIZER ADDED SUBROUTINE, CALLED 4 TIMES, CODE SIZE REDUCTION:15 WORDS
SUBOPT_0xE:
	LDD  R30,Y+12
	ST   -Y,R30
	LDD  R30,Y+7
	LDD  R31,Y+7+1
	ADIW R30,1
	STD  Y+7,R30
	STD  Y+7+1,R31
	SBIW R30,1
	RET

;OPTIMIZER ADDED SUBROUTINE, CALLED 3 TIMES, CODE SIZE REDUCTION:5 WORDS
SUBOPT_0xF:
	CLR  R22
	CLR  R23
	MOVW R26,R30
	MOVW R24,R22
	JMP  _glcd_readmem

;OPTIMIZER ADDED SUBROUTINE, CALLED 3 TIMES, CODE SIZE REDUCTION:1 WORDS
SUBOPT_0x10:
	ST   -Y,R21
	LDD  R26,Y+10
	JMP  _glcd_mappixcolor1bit

;OPTIMIZER ADDED SUBROUTINE, CALLED 3 TIMES, CODE SIZE REDUCTION:3 WORDS
SUBOPT_0x11:
	ST   -Y,R16
	INC  R16
	LDD  R30,Y+16
	ST   -Y,R30
	ST   -Y,R21
	RET

;OPTIMIZER ADDED SUBROUTINE, CALLED 2 TIMES, CODE SIZE REDUCTION:5 WORDS
SUBOPT_0x12:
	MOV  R21,R30
	LDD  R30,Y+12
	ST   -Y,R30
	LDD  R26,Y+7
	LDD  R27,Y+7+1
	CLR  R24
	CLR  R25
	CALL _glcd_readmem
	MOV  R1,R30
	RET

;OPTIMIZER ADDED SUBROUTINE, CALLED 2 TIMES, CODE SIZE REDUCTION:9 WORDS
SUBOPT_0x13:
	ST   -Y,R16
	INC  R16
	LDD  R30,Y+16
	ST   -Y,R30
	LDD  R30,Y+14
	ST   -Y,R30
	LDD  R30,Y+9
	LDD  R31,Y+9+1
	ADIW R30,1
	STD  Y+9,R30
	STD  Y+9+1,R31
	SBIW R30,1
	RJMP SUBOPT_0xF

;OPTIMIZER ADDED SUBROUTINE, CALLED 2 TIMES, CODE SIZE REDUCTION:1 WORDS
SUBOPT_0x14:
	ST   -Y,R27
	ST   -Y,R26
	LD   R26,Y
	LDD  R27,Y+1
	CALL __CPW02
	RET

;OPTIMIZER ADDED SUBROUTINE, CALLED 2 TIMES, CODE SIZE REDUCTION:1 WORDS
SUBOPT_0x15:
	CALL __SAVELOCR6
	__GETW1MN _glcd_state,4
	RET

;OPTIMIZER ADDED SUBROUTINE, CALLED 3 TIMES, CODE SIZE REDUCTION:1 WORDS
SUBOPT_0x16:
	MOVW R30,R16
	__ADDWRN 16,17,1
	LPM  R0,Z
	RET

;OPTIMIZER ADDED SUBROUTINE, CALLED 4 TIMES, CODE SIZE REDUCTION:9 WORDS
SUBOPT_0x17:
	__GETW1MN _glcd_state,4
	ADIW R30,1
	LPM  R30,Z
	RET

;OPTIMIZER ADDED SUBROUTINE, CALLED 2 TIMES, CODE SIZE REDUCTION:5 WORDS
SUBOPT_0x18:
	ST   -Y,R30
	LDI  R30,LOW(0)
	ST   -Y,R30
	LDI  R30,LOW(0)
	LDI  R31,HIGH(0)
	ST   -Y,R31
	ST   -Y,R30
	LDI  R26,LOW(9)
	JMP  _glcd_block

;OPTIMIZER ADDED SUBROUTINE, CALLED 3 TIMES, CODE SIZE REDUCTION:7 WORDS
SUBOPT_0x19:
	LDD  R26,Y+1
	LDD  R27,Y+1+1
	LD   R30,X+
	STD  Y+1,R26
	STD  Y+1+1,R27
	MOV  R17,R30
	CPI  R30,0
	RET

;OPTIMIZER ADDED SUBROUTINE, CALLED 2 TIMES, CODE SIZE REDUCTION:1 WORDS
SUBOPT_0x1A:
	CALL __lcd_write_data
	LDI  R26,LOW(3)
	LDI  R27,0
	JMP  _delay_ms

;OPTIMIZER ADDED SUBROUTINE, CALLED 3 TIMES, CODE SIZE REDUCTION:7 WORDS
SUBOPT_0x1B:
	LDI  R26,LOW(48)
	CALL __lcd_write_nibble_G103
	__DELAY_USW 200
	RET

;OPTIMIZER ADDED SUBROUTINE, CALLED 5 TIMES, CODE SIZE REDUCTION:13 WORDS
SUBOPT_0x1C:
	ST   -Y,R18
	LDD  R26,Y+13
	LDD  R27,Y+13+1
	LDD  R30,Y+15
	LDD  R31,Y+15+1
	ICALL
	RET

;OPTIMIZER ADDED SUBROUTINE, CALLED 5 TIMES, CODE SIZE REDUCTION:9 WORDS
SUBOPT_0x1D:
	LDD  R30,Y+16
	LDD  R31,Y+16+1
	SBIW R30,4
	STD  Y+16,R30
	STD  Y+16+1,R31
	RET

;OPTIMIZER ADDED SUBROUTINE, CALLED 3 TIMES, CODE SIZE REDUCTION:3 WORDS
SUBOPT_0x1E:
	LDD  R26,Y+13
	LDD  R27,Y+13+1
	LDD  R30,Y+15
	LDD  R31,Y+15+1
	ICALL
	RET

;OPTIMIZER ADDED SUBROUTINE, CALLED 2 TIMES, CODE SIZE REDUCTION:4 WORDS
SUBOPT_0x1F:
	LDD  R26,Y+16
	LDD  R27,Y+16+1
	ADIW R26,4
	CALL __GETW1P
	STD  Y+6,R30
	STD  Y+6+1,R31
	LDD  R26,Y+6
	LDD  R27,Y+6+1
	RET

;OPTIMIZER ADDED SUBROUTINE, CALLED 2 TIMES, CODE SIZE REDUCTION:2 WORDS
SUBOPT_0x20:
	LDD  R26,Y+16
	LDD  R27,Y+16+1
	ADIW R26,4
	CALL __GETW1P
	STD  Y+10,R30
	STD  Y+10+1,R31
	RET

;OPTIMIZER ADDED SUBROUTINE, CALLED 2 TIMES, CODE SIZE REDUCTION:1 WORDS
SUBOPT_0x21:
	MOVW R26,R28
	ADIW R26,12
	CALL __ADDW2R15
	CALL __GETW1P
	RET


	.CSEG
_delay_ms:
	adiw r26,0
	breq __delay_ms1
__delay_ms0:
	__DELAY_USW 0x7D0
	wdr
	sbiw r26,1
	brne __delay_ms0
__delay_ms1:
	ret

__ADDW2R15:
	CLR  R0
	ADD  R26,R15
	ADC  R27,R0
	RET

__ANEGW1:
	NEG  R31
	NEG  R30
	SBCI R31,0
	RET

__LSLB12:
	TST  R30
	MOV  R0,R30
	MOV  R30,R26
	BREQ __LSLB12R
__LSLB12L:
	LSL  R30
	DEC  R0
	BRNE __LSLB12L
__LSLB12R:
	RET

__LSRB12:
	TST  R30
	MOV  R0,R30
	MOV  R30,R26
	BREQ __LSRB12R
__LSRB12L:
	LSR  R30
	DEC  R0
	BRNE __LSRB12L
__LSRB12R:
	RET

__LSLW12:
	TST  R30
	MOV  R0,R30
	MOVW R30,R26
	BREQ __LSLW12R
__LSLW12L:
	LSL  R30
	ROL  R31
	DEC  R0
	BRNE __LSLW12L
__LSLW12R:
	RET

__CWD1:
	MOV  R22,R31
	ADD  R22,R22
	SBC  R22,R22
	MOV  R23,R22
	RET

__MULW12U:
	MUL  R31,R26
	MOV  R31,R0
	MUL  R30,R27
	ADD  R31,R0
	MUL  R30,R26
	MOV  R30,R0
	ADD  R31,R1
	RET

__DIVW21U:
	CLR  R0
	CLR  R1
	LDI  R25,16
__DIVW21U1:
	LSL  R26
	ROL  R27
	ROL  R0
	ROL  R1
	SUB  R0,R30
	SBC  R1,R31
	BRCC __DIVW21U2
	ADD  R0,R30
	ADC  R1,R31
	RJMP __DIVW21U3
__DIVW21U2:
	SBR  R26,1
__DIVW21U3:
	DEC  R25
	BRNE __DIVW21U1
	MOVW R30,R26
	MOVW R26,R0
	RET

__DIVW21:
	RCALL __CHKSIGNW
	RCALL __DIVW21U
	BRTC __DIVW211
	RCALL __ANEGW1
__DIVW211:
	RET

__MODW21:
	CLT
	SBRS R27,7
	RJMP __MODW211
	COM  R26
	COM  R27
	ADIW R26,1
	SET
__MODW211:
	SBRC R31,7
	RCALL __ANEGW1
	RCALL __DIVW21U
	MOVW R30,R26
	BRTC __MODW212
	RCALL __ANEGW1
__MODW212:
	RET

__CHKSIGNW:
	CLT
	SBRS R31,7
	RJMP __CHKSW1
	RCALL __ANEGW1
	SET
__CHKSW1:
	SBRS R27,7
	RJMP __CHKSW2
	COM  R26
	COM  R27
	ADIW R26,1
	BLD  R0,0
	INC  R0
	BST  R0,0
__CHKSW2:
	RET

__GETW1P:
	LD   R30,X+
	LD   R31,X
	SBIW R26,1
	RET

__GETW1PF:
	LPM  R0,Z+
	LPM  R31,Z
	MOV  R30,R0
	RET

__PUTPARD1:
	ST   -Y,R23
	ST   -Y,R22
	ST   -Y,R31
	ST   -Y,R30
	RET

__EEPROMRDB:
	SBIC EECR,EEWE
	RJMP __EEPROMRDB
	PUSH R31
	IN   R31,SREG
	CLI
	OUT  EEARL,R26
	OUT  EEARH,R27
	SBI  EECR,EERE
	IN   R30,EEDR
	OUT  SREG,R31
	POP  R31
	RET

__EEPROMWRB:
	SBIS EECR,EEWE
	RJMP __EEPROMWRB1
	WDR
	RJMP __EEPROMWRB
__EEPROMWRB1:
	IN   R25,SREG
	CLI
	OUT  EEARL,R26
	OUT  EEARH,R27
	SBI  EECR,EERE
	IN   R24,EEDR
	CP   R30,R24
	BREQ __EEPROMWRB0
	OUT  EEDR,R30
	SBI  EECR,EEMWE
	SBI  EECR,EEWE
__EEPROMWRB0:
	OUT  SREG,R25
	RET

__CPW02:
	CLR  R0
	CP   R0,R26
	CPC  R0,R27
	RET

__SAVELOCR6:
	ST   -Y,R21
__SAVELOCR5:
	ST   -Y,R20
__SAVELOCR4:
	ST   -Y,R19
__SAVELOCR3:
	ST   -Y,R18
__SAVELOCR2:
	ST   -Y,R17
	ST   -Y,R16
	RET

__LOADLOCR6:
	LDD  R21,Y+5
__LOADLOCR5:
	LDD  R20,Y+4
__LOADLOCR4:
	LDD  R19,Y+3
__LOADLOCR3:
	LDD  R18,Y+2
__LOADLOCR2:
	LDD  R17,Y+1
	LD   R16,Y
	RET

__INITLOCB:
__INITLOCW:
	ADD  R26,R28
	ADC  R27,R29
__INITLOC0:
	LPM  R0,Z+
	ST   X+,R0
	DEC  R24
	BRNE __INITLOC0
	RET

;END OF CODE MARKER
__END_OF_CODE:
